ccopy_reg
_reconstructor
p0
(cFingerPrint.swirl
Swirl
p1
c__builtin__
object
p2
Ntp3
Rp4
(dp5
S'ldconf_paths'
p6
(lp7
S'/usr/lib64/atlas'
p8
aS'/usr/lib/cernlib/2006/lib'
p9
aS'/usr/lib64/cernlib/2006/lib'
p10
aS'/usr/lib64/mysql'
p11
aS'/opt/dell/srvadmin/lib64'
p12
aS'/opt/dell/srvadmin/lib64/openmanage'
p13
aS'/opt/dell/srvadmin/lib64/srvadmin-idrac'
p14
aS'/opt/dell/srvadmin/lib64/srvadmin-isvc'
p15
aS'/opt/dell/srvadmin/lib64/openmanage/smpop'
p16
aS'/usr/lib64/xulrunner'
p17
aS'/lib64'
p18
aS'/usr/lib64'
p19
aS'/lib/i686'
p20
aS'/usr/lib64/sse2'
p21
aS'/usr/lib64/tls'
p22
asS'name'
p23
S'Swirl'
p24
sS'execedFiles'
p25
(lp26
(iFingerPrint.swirl
SwirlFile
p27
(dp28
S'executable'
p29
I01
sS'env'
p30
(lp31
sS'links'
p32
(lp33
sS'dynamicDependencies'
p34
(lp35
sS'type'
p36
S'ELF'
p37
sS'md5sum'
p38
S'070276f13a1435b19794f89c60287bd3'
p39
sS'package'
p40
NsS'staticDependencies'
p41
(lp42
(iFingerPrint.swirl
Dependency
p43
(dp44
S'hwcap'
p45
NsS'major'
p46
S'ld-linux-x86-64.so.2'
p47
sS'arch'
p48
S'x86_64'
p49
sS'minor'
p50
S''
p51
sg36
g37
sba(iFingerPrint.swirl
Dependency
p52
(dp53
g45
Nsg46
S'libc.so.6'
p54
sg48
g49
sg50
g51
sg36
g37
sba(iFingerPrint.swirl
Dependency
p55
(dp56
g45
Nsg46
S'libc.so.6'
p57
sg48
g49
sg50
S'GLIBC_2.2.5'
p58
sg36
g37
sba(iFingerPrint.swirl
Dependency
p59
(dp60
g45
Nsg46
S'libdl.so.2'
p61
sg48
g49
sg50
g51
sg36
g37
sba(iFingerPrint.swirl
Dependency
p62
(dp63
g45
Nsg46
S'libgcc_s.so.1'
p64
sg48
g49
sg50
g51
sg36
g37
sba(iFingerPrint.swirl
Dependency
p65
(dp66
g45
Nsg46
S'libm.so.6'
p67
sg48
g49
sg50
g51
sg36
g37
sba(iFingerPrint.swirl
Dependency
p68
(dp69
g45
Nsg46
S'libstdc++.so.6'
p70
sg48
g49
sg50
g51
sg36
g37
sba(iFingerPrint.swirl
Dependency
p71
(dp72
g45
Nsg46
S'libstdc++.so.6'
p73
sg48
g49
sg50
S'CXXABI_1.3'
p74
sg36
g37
sba(iFingerPrint.swirl
Dependency
p75
(dp76
g45
Nsg46
S'libstdc++.so.6'
p77
sg48
g49
sg50
S'GLIBCXX_3.4'
p78
sg36
g37
sbasS'provides'
p79
(lp80
sS'openedFiles'
p81
(dp82
sS'rpaths'
p83
(lp84
g51
asS'path'
p85
S'/home/clem/XsedeTests/compile/osg/autodock/bin/autogrid4'
p86
sg48
g49
sba(iFingerPrint.swirl
SwirlFile
p87
(dp88
g29
I01
sg30
(lp89
sg32
(lp90
sg34
(lp91
sg36
g37
sg38
S'e703db2ec4096046b9ebf0dc3e318319'
p92
sg40
Nsg41
(lp93
(iFingerPrint.swirl
Dependency
p94
(dp95
g45
Nsg46
S'ld-linux-x86-64.so.2'
p96
sg48
g49
sg50
g51
sg36
g37
sba(iFingerPrint.swirl
Dependency
p97
(dp98
g45
Nsg46
S'libc.so.6'
p99
sg48
g49
sg50
g51
sg36
g37
sba(iFingerPrint.swirl
Dependency
p100
(dp101
g45
Nsg46
S'libc.so.6'
p102
sg48
g49
sg50
S'GLIBC_2.2.5'
p103
sg36
g37
sba(iFingerPrint.swirl
Dependency
p104
(dp105
g45
Nsg46
S'libdl.so.2'
p106
sg48
g49
sg50
g51
sg36
g37
sba(iFingerPrint.swirl
Dependency
p107
(dp108
g45
Nsg46
S'libgcc_s.so.1'
p109
sg48
g49
sg50
g51
sg36
g37
sba(iFingerPrint.swirl
Dependency
p110
(dp111
g45
Nsg46
S'libgcc_s.so.1'
p112
sg48
g49
sg50
S'GCC_3.0'
p113
sg36
g37
sba(iFingerPrint.swirl
Dependency
p114
(dp115
g45
Nsg46
S'libm.so.6'
p116
sg48
g49
sg50
g51
sg36
g37
sba(iFingerPrint.swirl
Dependency
p117
(dp118
g45
Nsg46
S'libstdc++.so.6'
p119
sg48
g49
sg50
g51
sg36
g37
sba(iFingerPrint.swirl
Dependency
p120
(dp121
g45
Nsg46
S'libstdc++.so.6'
p122
sg48
g49
sg50
S'CXXABI_1.3'
p123
sg36
g37
sba(iFingerPrint.swirl
Dependency
p124
(dp125
g45
Nsg46
S'libstdc++.so.6'
p126
sg48
g49
sg50
S'GLIBCXX_3.4'
p127
sg36
g37
sbasg79
(lp128
sg81
(dp129
sg83
(lp130
g51
asg85
S'/home/clem/XsedeTests/compile/osg/autodock/bin/autodock4'
p131
sg48
g49
sbasS'swirlFiles'
p132
(lp133
g27
a(iFingerPrint.swirl
SwirlFile
p134
(dp135
g29
I00
sg30
(lp136
sg32
(lp137
S'/lib64/ld-linux-x86-64.so.2'
p138
asg34
(lp139
sg36
g37
sg38
S'99942971d81a064448ac4455211ba4de'
p140
sg40
S'glibc-2.5-118.el5_10.2.x86_64'
p141
sg41
(lp142
sg79
(lp143
(iFingerPrint.swirl
Dependency
p144
(dp145
g45
Nsg46
S'ld-linux-x86-64.so.2'
p146
sg48
g49
sg50
g51
sg36
g37
sba(iFingerPrint.swirl
Dependency
p147
(dp148
g45
Nsg46
S'ld-linux-x86-64.so.2'
p149
sg48
g49
sg50
S'GLIBC_2.2.5'
p150
sg36
g37
sba(iFingerPrint.swirl
Dependency
p151
(dp152
g45
Nsg46
S'ld-linux-x86-64.so.2'
p153
sg48
g49
sg50
S'GLIBC_2.3'
p154
sg36
g37
sba(iFingerPrint.swirl
Dependency
p155
(dp156
g45
Nsg46
S'ld-linux-x86-64.so.2'
p157
sg48
g49
sg50
S'GLIBC_2.4'
p158
sg36
g37
sba(iFingerPrint.swirl
Dependency
p159
(dp160
g45
Nsg46
S'ld-linux-x86-64.so.2'
p161
sg48
g49
sg50
S'GLIBC_PRIVATE'
p162
sg36
g37
sbasg81
(dp163
sg83
(lp164
g51
asg85
S'/lib64/ld-2.5.so'
p165
sg48
g49
sba(iFingerPrint.swirl
SwirlFile
p166
(dp167
g29
I00
sg30
(lp168
sg32
(lp169
S'/lib64/libc.so.6'
p170
asg34
(lp171
sg36
g37
sg38
S'fc8ed1e0919b53eb8aa574ac8ea38a5c'
p172
sg40
S'glibc-2.5-118.el5_10.2.x86_64'
p173
sg41
(lp174
(iFingerPrint.swirl
Dependency
p175
(dp176
g45
Nsg46
S'ld-linux-x86-64.so.2'
p177
sg48
g49
sg50
g51
sg36
g37
sba(iFingerPrint.swirl
Dependency
p178
(dp179
g45
Nsg46
S'ld-linux-x86-64.so.2'
p180
sg48
g49
sg50
S'GLIBC_2.3'
p181
sg36
g37
sba(iFingerPrint.swirl
Dependency
p182
(dp183
g45
Nsg46
S'ld-linux-x86-64.so.2'
p184
sg48
g49
sg50
S'GLIBC_PRIVATE'
p185
sg36
g37
sbasg79
(lp186
(iFingerPrint.swirl
Dependency
p187
(dp188
g45
Nsg46
S'libc.so.6'
p189
sg48
g49
sg50
g51
sg36
g37
sba(iFingerPrint.swirl
Dependency
p190
(dp191
g45
Nsg46
S'libc.so.6'
p192
sg48
g49
sg50
S'GLIBC_2.2.5'
p193
sg36
g37
sba(iFingerPrint.swirl
Dependency
p194
(dp195
g45
Nsg46
S'libc.so.6'
p196
sg48
g49
sg50
S'GLIBC_2.2.6'
p197
sg36
g37
sba(iFingerPrint.swirl
Dependency
p198
(dp199
g45
Nsg46
S'libc.so.6'
p200
sg48
g49
sg50
S'GLIBC_2.3.2'
p201
sg36
g37
sba(iFingerPrint.swirl
Dependency
p202
(dp203
g45
Nsg46
S'libc.so.6'
p204
sg48
g49
sg50
S'GLIBC_2.3.3'
p205
sg36
g37
sba(iFingerPrint.swirl
Dependency
p206
(dp207
g45
Nsg46
S'libc.so.6'
p208
sg48
g49
sg50
S'GLIBC_2.3.4'
p209
sg36
g37
sba(iFingerPrint.swirl
Dependency
p210
(dp211
g45
Nsg46
S'libc.so.6'
p212
sg48
g49
sg50
S'GLIBC_2.3'
p213
sg36
g37
sba(iFingerPrint.swirl
Dependency
p214
(dp215
g45
Nsg46
S'libc.so.6'
p216
sg48
g49
sg50
S'GLIBC_2.4'
p217
sg36
g37
sba(iFingerPrint.swirl
Dependency
p218
(dp219
g45
Nsg46
S'libc.so.6'
p220
sg48
g49
sg50
S'GLIBC_2.5'
p221
sg36
g37
sba(iFingerPrint.swirl
Dependency
p222
(dp223
g45
Nsg46
S'libc.so.6'
p224
sg48
g49
sg50
S'GLIBC_PRIVATE'
p225
sg36
g37
sbasg81
(dp226
sg83
(lp227
g51
asg85
S'/lib64/libc-2.5.so'
p228
sg48
g49
sba(iFingerPrint.swirl
SwirlFile
p229
(dp230
g29
I00
sg30
(lp231
sg32
(lp232
S'/lib64/libdl.so.2'
p233
asg34
(lp234
sg36
g37
sg38
S'3b195c6ba85561c78aa36060508408fb'
p235
sg40
S'glibc-2.5-118.el5_10.2.x86_64'
p236
sg41
(lp237
(iFingerPrint.swirl
Dependency
p238
(dp239
g45
Nsg46
S'ld-linux-x86-64.so.2'
p240
sg48
g49
sg50
g51
sg36
g37
sba(iFingerPrint.swirl
Dependency
p241
(dp242
g45
Nsg46
S'ld-linux-x86-64.so.2'
p243
sg48
g49
sg50
S'GLIBC_PRIVATE'
p244
sg36
g37
sba(iFingerPrint.swirl
Dependency
p245
(dp246
g45
Nsg46
S'libc.so.6'
p247
sg48
g49
sg50
g51
sg36
g37
sba(iFingerPrint.swirl
Dependency
p248
(dp249
g45
Nsg46
S'libc.so.6'
p250
sg48
g49
sg50
S'GLIBC_2.2.5'
p251
sg36
g37
sba(iFingerPrint.swirl
Dependency
p252
(dp253
g45
Nsg46
S'libc.so.6'
p254
sg48
g49
sg50
S'GLIBC_PRIVATE'
p255
sg36
g37
sbasg79
(lp256
(iFingerPrint.swirl
Dependency
p257
(dp258
g45
Nsg46
S'libdl.so.2'
p259
sg48
g49
sg50
g51
sg36
g37
sba(iFingerPrint.swirl
Dependency
p260
(dp261
g45
Nsg46
S'libdl.so.2'
p262
sg48
g49
sg50
S'GLIBC_2.2.5'
p263
sg36
g37
sba(iFingerPrint.swirl
Dependency
p264
(dp265
g45
Nsg46
S'libdl.so.2'
p266
sg48
g49
sg50
S'GLIBC_2.3.3'
p267
sg36
g37
sba(iFingerPrint.swirl
Dependency
p268
(dp269
g45
Nsg46
S'libdl.so.2'
p270
sg48
g49
sg50
S'GLIBC_2.3.4'
p271
sg36
g37
sba(iFingerPrint.swirl
Dependency
p272
(dp273
g45
Nsg46
S'libdl.so.2'
p274
sg48
g49
sg50
S'GLIBC_PRIVATE'
p275
sg36
g37
sbasg81
(dp276
sg83
(lp277
g51
asg85
S'/lib64/libdl-2.5.so'
p278
sg48
g49
sba(iFingerPrint.swirl
SwirlFile
p279
(dp280
g29
I00
sg30
(lp281
sg32
(lp282
S'/lib64/libgcc_s.so.1'
p283
asg34
(lp284
sg36
g37
sg38
S'69557b0353bb5de92e13b21da1dd8e79'
p285
sg40
S'libgcc-4.1.2-54.el5.x86_64'
p286
sg41
(lp287
(iFingerPrint.swirl
Dependency
p288
(dp289
g45
Nsg46
S'ld-linux-x86-64.so.2'
p290
sg48
g49
sg50
g51
sg36
g37
sba(iFingerPrint.swirl
Dependency
p291
(dp292
g45
Nsg46
S'libc.so.6'
p293
sg48
g49
sg50
g51
sg36
g37
sba(iFingerPrint.swirl
Dependency
p294
(dp295
g45
Nsg46
S'libc.so.6'
p296
sg48
g49
sg50
S'GLIBC_2.2.5'
p297
sg36
g37
sba(iFingerPrint.swirl
Dependency
p298
(dp299
g45
Nsg46
S'libc.so.6'
p300
sg48
g49
sg50
S'GLIBC_2.4'
p301
sg36
g37
sbasg79
(lp302
(iFingerPrint.swirl
Dependency
p303
(dp304
g45
Nsg46
S'libgcc_s.so.1'
p305
sg48
g49
sg50
g51
sg36
g37
sba(iFingerPrint.swirl
Dependency
p306
(dp307
g45
Nsg46
S'libgcc_s.so.1'
p308
sg48
g49
sg50
S'GCC_3.0'
p309
sg36
g37
sba(iFingerPrint.swirl
Dependency
p310
(dp311
g45
Nsg46
S'libgcc_s.so.1'
p312
sg48
g49
sg50
S'GCC_3.3.1'
p313
sg36
g37
sba(iFingerPrint.swirl
Dependency
p314
(dp315
g45
Nsg46
S'libgcc_s.so.1'
p316
sg48
g49
sg50
S'GCC_3.3'
p317
sg36
g37
sba(iFingerPrint.swirl
Dependency
p318
(dp319
g45
Nsg46
S'libgcc_s.so.1'
p320
sg48
g49
sg50
S'GCC_3.4.2'
p321
sg36
g37
sba(iFingerPrint.swirl
Dependency
p322
(dp323
g45
Nsg46
S'libgcc_s.so.1'
p324
sg48
g49
sg50
S'GCC_3.4.4'
p325
sg36
g37
sba(iFingerPrint.swirl
Dependency
p326
(dp327
g45
Nsg46
S'libgcc_s.so.1'
p328
sg48
g49
sg50
S'GCC_3.4'
p329
sg36
g37
sba(iFingerPrint.swirl
Dependency
p330
(dp331
g45
Nsg46
S'libgcc_s.so.1'
p332
sg48
g49
sg50
S'GCC_4.0.0'
p333
sg36
g37
sba(iFingerPrint.swirl
Dependency
p334
(dp335
g45
Nsg46
S'libgcc_s.so.1'
p336
sg48
g49
sg50
S'GCC_4.2.0'
p337
sg36
g37
sbasg81
(dp338
sg83
(lp339
g51
asg85
S'/lib64/libgcc_s-4.1.2-20080825.so.1'
p340
sg48
g49
sba(iFingerPrint.swirl
SwirlFile
p341
(dp342
g29
I00
sg30
(lp343
sg32
(lp344
S'/lib64/libm.so.6'
p345
asg34
(lp346
sg36
g37
sg38
S'74697eb819bd3936dbc9a7a9e374f163'
p347
sg40
S'glibc-2.5-118.el5_10.2.x86_64'
p348
sg41
(lp349
(iFingerPrint.swirl
Dependency
p350
(dp351
g45
Nsg46
S'ld-linux-x86-64.so.2'
p352
sg48
g49
sg50
g51
sg36
g37
sba(iFingerPrint.swirl
Dependency
p353
(dp354
g45
Nsg46
S'libc.so.6'
p355
sg48
g49
sg50
g51
sg36
g37
sba(iFingerPrint.swirl
Dependency
p356
(dp357
g45
Nsg46
S'libc.so.6'
p358
sg48
g49
sg50
S'GLIBC_2.2.5'
p359
sg36
g37
sbasg79
(lp360
(iFingerPrint.swirl
Dependency
p361
(dp362
g45
Nsg46
S'libm.so.6'
p363
sg48
g49
sg50
g51
sg36
g37
sba(iFingerPrint.swirl
Dependency
p364
(dp365
g45
Nsg46
S'libm.so.6'
p366
sg48
g49
sg50
S'GLIBC_2.2.5'
p367
sg36
g37
sba(iFingerPrint.swirl
Dependency
p368
(dp369
g45
Nsg46
S'libm.so.6'
p370
sg48
g49
sg50
S'GLIBC_2.4'
p371
sg36
g37
sbasg81
(dp372
sg83
(lp373
g51
asg85
S'/lib64/libm-2.5.so'
p374
sg48
g49
sba(iFingerPrint.swirl
SwirlFile
p375
(dp376
g29
I00
sg30
(lp377
sg32
(lp378
S'/usr/lib64/libstdc++.so.6'
p379
asg34
(lp380
sg36
g37
sg38
S'9051f28f1fdcf00917b4cca172d44a2b'
p381
sg40
S'libstdc++-4.1.2-54.el5.x86_64'
p382
sg41
(lp383
(iFingerPrint.swirl
Dependency
p384
(dp385
g45
Nsg46
S'ld-linux-x86-64.so.2'
p386
sg48
g49
sg50
g51
sg36
g37
sba(iFingerPrint.swirl
Dependency
p387
(dp388
g45
Nsg46
S'ld-linux-x86-64.so.2'
p389
sg48
g49
sg50
S'GLIBC_2.3'
p390
sg36
g37
sba(iFingerPrint.swirl
Dependency
p391
(dp392
g45
Nsg46
S'libc.so.6'
p393
sg48
g49
sg50
g51
sg36
g37
sba(iFingerPrint.swirl
Dependency
p394
(dp395
g45
Nsg46
S'libc.so.6'
p396
sg48
g49
sg50
S'GLIBC_2.2.5'
p397
sg36
g37
sba(iFingerPrint.swirl
Dependency
p398
(dp399
g45
Nsg46
S'libc.so.6'
p400
sg48
g49
sg50
S'GLIBC_2.3.2'
p401
sg36
g37
sba(iFingerPrint.swirl
Dependency
p402
(dp403
g45
Nsg46
S'libc.so.6'
p404
sg48
g49
sg50
S'GLIBC_2.3'
p405
sg36
g37
sba(iFingerPrint.swirl
Dependency
p406
(dp407
g45
Nsg46
S'libc.so.6'
p408
sg48
g49
sg50
S'GLIBC_2.4'
p409
sg36
g37
sba(iFingerPrint.swirl
Dependency
p410
(dp411
g45
Nsg46
S'libgcc_s.so.1'
p412
sg48
g49
sg50
g51
sg36
g37
sba(iFingerPrint.swirl
Dependency
p413
(dp414
g45
Nsg46
S'libgcc_s.so.1'
p415
sg48
g49
sg50
S'GCC_3.0'
p416
sg36
g37
sba(iFingerPrint.swirl
Dependency
p417
(dp418
g45
Nsg46
S'libgcc_s.so.1'
p419
sg48
g49
sg50
S'GCC_3.3'
p420
sg36
g37
sba(iFingerPrint.swirl
Dependency
p421
(dp422
g45
Nsg46
S'libgcc_s.so.1'
p423
sg48
g49
sg50
S'GCC_4.2.0'
p424
sg36
g37
sba(iFingerPrint.swirl
Dependency
p425
(dp426
g45
Nsg46
S'libm.so.6'
p427
sg48
g49
sg50
g51
sg36
g37
sbasg79
(lp428
(iFingerPrint.swirl
Dependency
p429
(dp430
g45
Nsg46
S'libstdc++.so.6'
p431
sg48
g49
sg50
g51
sg36
g37
sba(iFingerPrint.swirl
Dependency
p432
(dp433
g45
Nsg46
S'libstdc++.so.6'
p434
sg48
g49
sg50
S'CXXABI_1.3.1'
p435
sg36
g37
sba(iFingerPrint.swirl
Dependency
p436
(dp437
g45
Nsg46
S'libstdc++.so.6'
p438
sg48
g49
sg50
S'CXXABI_1.3'
p439
sg36
g37
sba(iFingerPrint.swirl
Dependency
p440
(dp441
g45
Nsg46
S'libstdc++.so.6'
p442
sg48
g49
sg50
S'GLIBCXX_3.4.1'
p443
sg36
g37
sba(iFingerPrint.swirl
Dependency
p444
(dp445
g45
Nsg46
S'libstdc++.so.6'
p446
sg48
g49
sg50
S'GLIBCXX_3.4.2'
p447
sg36
g37
sba(iFingerPrint.swirl
Dependency
p448
(dp449
g45
Nsg46
S'libstdc++.so.6'
p450
sg48
g49
sg50
S'GLIBCXX_3.4.3'
p451
sg36
g37
sba(iFingerPrint.swirl
Dependency
p452
(dp453
g45
Nsg46
S'libstdc++.so.6'
p454
sg48
g49
sg50
S'GLIBCXX_3.4.4'
p455
sg36
g37
sba(iFingerPrint.swirl
Dependency
p456
(dp457
g45
Nsg46
S'libstdc++.so.6'
p458
sg48
g49
sg50
S'GLIBCXX_3.4.5'
p459
sg36
g37
sba(iFingerPrint.swirl
Dependency
p460
(dp461
g45
Nsg46
S'libstdc++.so.6'
p462
sg48
g49
sg50
S'GLIBCXX_3.4'
p463
sg36
g37
sba(iFingerPrint.swirl
Dependency
p464
(dp465
g45
Nsg46
S'libstdc++.so.6'
p466
sg48
g49
sg50
S'GLIBCXX_3.4.6'
p467
sg36
g37
sba(iFingerPrint.swirl
Dependency
p468
(dp469
g45
Nsg46
S'libstdc++.so.6'
p470
sg48
g49
sg50
S'GLIBCXX_3.4.7'
p471
sg36
g37
sba(iFingerPrint.swirl
Dependency
p472
(dp473
g45
Nsg46
S'libstdc++.so.6'
p474
sg48
g49
sg50
S'GLIBCXX_3.4.8'
p475
sg36
g37
sbasg81
(dp476
sg83
(lp477
g51
asg85
S'/usr/lib64/libstdc++.so.6.0.8'
p478
sg48
g49
sbag87
asS'cmdLine'
p479
NsS'creationDate'
p480
cdatetime
datetime
p481
(S'\x07\xdd\n\x1f\x13\x1a5\x0b\xa4\x86'
p482
tp483
Rp484
sb.