ccopy_reg
_reconstructor
p0
(cFingerPrint.swirl
Swirl
p1
c__builtin__
object
p2
Ntp3
Rp4
(dp5
S'swirlFiles'
p6
(lp7
(iFingerPrint.swirl
SwirlFile
p8
(dp9
S'links'
p10
(lp11
sS'dynamicDependencies'
p12
(lp13
sS'type'
p14
S'ELF'
p15
sS'md5sum'
p16
S'070276f13a1435b19794f89c60287bd3'
p17
sS'package'
p18
NsS'staticDependencies'
p19
(lp20
(iFingerPrint.swirl
Dependency
p21
(dp22
S'hwcap'
p23
NsS'major'
p24
S'ld-linux-x86-64.so.2'
p25
sS'arch'
p26
S'x86_64'
p27
sS'minor'
p28
S''
p29
sg14
g15
sba(iFingerPrint.swirl
Dependency
p30
(dp31
g23
Nsg24
S'libc.so.6'
p32
sg26
g27
sg28
g29
sg14
g15
sba(iFingerPrint.swirl
Dependency
p33
(dp34
g23
Nsg24
S'libc.so.6'
p35
sg26
g27
sg28
S'GLIBC_2.2.5'
p36
sg14
g15
sba(iFingerPrint.swirl
Dependency
p37
(dp38
g23
Nsg24
S'libdl.so.2'
p39
sg26
g27
sg28
g29
sg14
g15
sba(iFingerPrint.swirl
Dependency
p40
(dp41
g23
Nsg24
S'libgcc_s.so.1'
p42
sg26
g27
sg28
g29
sg14
g15
sba(iFingerPrint.swirl
Dependency
p43
(dp44
g23
Nsg24
S'libm.so.6'
p45
sg26
g27
sg28
g29
sg14
g15
sba(iFingerPrint.swirl
Dependency
p46
(dp47
g23
Nsg24
S'libstdc++.so.6'
p48
sg26
g27
sg28
g29
sg14
g15
sba(iFingerPrint.swirl
Dependency
p49
(dp50
g23
Nsg24
S'libstdc++.so.6'
p51
sg26
g27
sg28
S'CXXABI_1.3'
p52
sg14
g15
sba(iFingerPrint.swirl
Dependency
p53
(dp54
g23
Nsg24
S'libstdc++.so.6'
p55
sg26
g27
sg28
S'GLIBCXX_3.4'
p56
sg14
g15
sbasS'provides'
p57
(lp58
sS'openedFiles'
p59
(lp60
sS'path'
p61
S'autodock/bin/autogrid4'
p62
sg26
g27
sba(iFingerPrint.swirl
SwirlFile
p63
(dp64
g10
(lp65
S'/lib64/ld-linux-x86-64.so.2'
p66
asg12
(lp67
sg14
g15
sg16
S'3cb6e5a3cb200e5ff2c8418d6c428177'
p68
sg18
S'glibc-2.5-107.x86_64'
p69
sg19
(lp70
sg57
(lp71
(iFingerPrint.swirl
Dependency
p72
(dp73
g23
Nsg24
S'ld-linux-x86-64.so.2'
p74
sg26
g27
sg28
g29
sg14
g15
sba(iFingerPrint.swirl
Dependency
p75
(dp76
g23
Nsg24
S'ld-linux-x86-64.so.2'
p77
sg26
g27
sg28
S'GLIBC_2.2.5'
p78
sg14
g15
sba(iFingerPrint.swirl
Dependency
p79
(dp80
g23
Nsg24
S'ld-linux-x86-64.so.2'
p81
sg26
g27
sg28
S'GLIBC_2.3'
p82
sg14
g15
sba(iFingerPrint.swirl
Dependency
p83
(dp84
g23
Nsg24
S'ld-linux-x86-64.so.2'
p85
sg26
g27
sg28
S'GLIBC_2.4'
p86
sg14
g15
sba(iFingerPrint.swirl
Dependency
p87
(dp88
g23
Nsg24
S'ld-linux-x86-64.so.2'
p89
sg26
g27
sg28
S'GLIBC_PRIVATE'
p90
sg14
g15
sbasg59
(lp91
sg61
S'/lib64/ld-2.5.so'
p92
sg26
g27
sba(iFingerPrint.swirl
SwirlFile
p93
(dp94
g10
(lp95
S'/lib64/libc.so.6'
p96
asg12
(lp97
sg14
g15
sg16
S'8983b03ad9318aa8955931e93e184a11'
p98
sg18
S'glibc-2.5-107.x86_64'
p99
sg19
(lp100
(iFingerPrint.swirl
Dependency
p101
(dp102
g23
Nsg24
S'ld-linux-x86-64.so.2'
p103
sg26
g27
sg28
g29
sg14
g15
sba(iFingerPrint.swirl
Dependency
p104
(dp105
g23
Nsg24
S'ld-linux-x86-64.so.2'
p106
sg26
g27
sg28
S'GLIBC_2.3'
p107
sg14
g15
sba(iFingerPrint.swirl
Dependency
p108
(dp109
g23
Nsg24
S'ld-linux-x86-64.so.2'
p110
sg26
g27
sg28
S'GLIBC_PRIVATE'
p111
sg14
g15
sbasg57
(lp112
(iFingerPrint.swirl
Dependency
p113
(dp114
g23
Nsg24
S'libc.so.6'
p115
sg26
g27
sg28
g29
sg14
g15
sba(iFingerPrint.swirl
Dependency
p116
(dp117
g23
Nsg24
S'libc.so.6'
p118
sg26
g27
sg28
S'GLIBC_2.2.5'
p119
sg14
g15
sba(iFingerPrint.swirl
Dependency
p120
(dp121
g23
Nsg24
S'libc.so.6'
p122
sg26
g27
sg28
S'GLIBC_2.2.6'
p123
sg14
g15
sba(iFingerPrint.swirl
Dependency
p124
(dp125
g23
Nsg24
S'libc.so.6'
p126
sg26
g27
sg28
S'GLIBC_2.3.2'
p127
sg14
g15
sba(iFingerPrint.swirl
Dependency
p128
(dp129
g23
Nsg24
S'libc.so.6'
p130
sg26
g27
sg28
S'GLIBC_2.3.3'
p131
sg14
g15
sba(iFingerPrint.swirl
Dependency
p132
(dp133
g23
Nsg24
S'libc.so.6'
p134
sg26
g27
sg28
S'GLIBC_2.3.4'
p135
sg14
g15
sba(iFingerPrint.swirl
Dependency
p136
(dp137
g23
Nsg24
S'libc.so.6'
p138
sg26
g27
sg28
S'GLIBC_2.3'
p139
sg14
g15
sba(iFingerPrint.swirl
Dependency
p140
(dp141
g23
Nsg24
S'libc.so.6'
p142
sg26
g27
sg28
S'GLIBC_2.4'
p143
sg14
g15
sba(iFingerPrint.swirl
Dependency
p144
(dp145
g23
Nsg24
S'libc.so.6'
p146
sg26
g27
sg28
S'GLIBC_2.5'
p147
sg14
g15
sba(iFingerPrint.swirl
Dependency
p148
(dp149
g23
Nsg24
S'libc.so.6'
p150
sg26
g27
sg28
S'GLIBC_PRIVATE'
p151
sg14
g15
sbasg59
(lp152
sg61
S'/lib64/libc-2.5.so'
p153
sg26
g27
sba(iFingerPrint.swirl
SwirlFile
p154
(dp155
g10
(lp156
S'/lib64/libdl.so.2'
p157
asg12
(lp158
sg14
g15
sg16
S'349ac1a5d02370845264b7b540356fc0'
p159
sg18
S'glibc-2.5-107.x86_64'
p160
sg19
(lp161
(iFingerPrint.swirl
Dependency
p162
(dp163
g23
Nsg24
S'ld-linux-x86-64.so.2'
p164
sg26
g27
sg28
g29
sg14
g15
sba(iFingerPrint.swirl
Dependency
p165
(dp166
g23
Nsg24
S'ld-linux-x86-64.so.2'
p167
sg26
g27
sg28
S'GLIBC_PRIVATE'
p168
sg14
g15
sba(iFingerPrint.swirl
Dependency
p169
(dp170
g23
Nsg24
S'libc.so.6'
p171
sg26
g27
sg28
g29
sg14
g15
sba(iFingerPrint.swirl
Dependency
p172
(dp173
g23
Nsg24
S'libc.so.6'
p174
sg26
g27
sg28
S'GLIBC_2.2.5'
p175
sg14
g15
sba(iFingerPrint.swirl
Dependency
p176
(dp177
g23
Nsg24
S'libc.so.6'
p178
sg26
g27
sg28
S'GLIBC_PRIVATE'
p179
sg14
g15
sbasg57
(lp180
(iFingerPrint.swirl
Dependency
p181
(dp182
g23
Nsg24
S'libdl.so.2'
p183
sg26
g27
sg28
g29
sg14
g15
sba(iFingerPrint.swirl
Dependency
p184
(dp185
g23
Nsg24
S'libdl.so.2'
p186
sg26
g27
sg28
S'GLIBC_2.2.5'
p187
sg14
g15
sba(iFingerPrint.swirl
Dependency
p188
(dp189
g23
Nsg24
S'libdl.so.2'
p190
sg26
g27
sg28
S'GLIBC_2.3.3'
p191
sg14
g15
sba(iFingerPrint.swirl
Dependency
p192
(dp193
g23
Nsg24
S'libdl.so.2'
p194
sg26
g27
sg28
S'GLIBC_2.3.4'
p195
sg14
g15
sba(iFingerPrint.swirl
Dependency
p196
(dp197
g23
Nsg24
S'libdl.so.2'
p198
sg26
g27
sg28
S'GLIBC_PRIVATE'
p199
sg14
g15
sbasg59
(lp200
sg61
S'/lib64/libdl-2.5.so'
p201
sg26
g27
sba(iFingerPrint.swirl
SwirlFile
p202
(dp203
g10
(lp204
S'/lib64/libgcc_s.so.1'
p205
asg12
(lp206
sg14
g15
sg16
S'9747feb3d2db0e0a958faf016f7f76b2'
p207
sg18
S'libgcc-4.1.2-54.el5.x86_64'
p208
sg19
(lp209
(iFingerPrint.swirl
Dependency
p210
(dp211
g23
Nsg24
S'ld-linux-x86-64.so.2'
p212
sg26
g27
sg28
g29
sg14
g15
sba(iFingerPrint.swirl
Dependency
p213
(dp214
g23
Nsg24
S'libc.so.6'
p215
sg26
g27
sg28
g29
sg14
g15
sba(iFingerPrint.swirl
Dependency
p216
(dp217
g23
Nsg24
S'libc.so.6'
p218
sg26
g27
sg28
S'GLIBC_2.2.5'
p219
sg14
g15
sba(iFingerPrint.swirl
Dependency
p220
(dp221
g23
Nsg24
S'libc.so.6'
p222
sg26
g27
sg28
S'GLIBC_2.4'
p223
sg14
g15
sbasg57
(lp224
(iFingerPrint.swirl
Dependency
p225
(dp226
g23
Nsg24
S'libgcc_s.so.1'
p227
sg26
g27
sg28
g29
sg14
g15
sba(iFingerPrint.swirl
Dependency
p228
(dp229
g23
Nsg24
S'libgcc_s.so.1'
p230
sg26
g27
sg28
S'GCC_3.0'
p231
sg14
g15
sba(iFingerPrint.swirl
Dependency
p232
(dp233
g23
Nsg24
S'libgcc_s.so.1'
p234
sg26
g27
sg28
S'GCC_3.3.1'
p235
sg14
g15
sba(iFingerPrint.swirl
Dependency
p236
(dp237
g23
Nsg24
S'libgcc_s.so.1'
p238
sg26
g27
sg28
S'GCC_3.3'
p239
sg14
g15
sba(iFingerPrint.swirl
Dependency
p240
(dp241
g23
Nsg24
S'libgcc_s.so.1'
p242
sg26
g27
sg28
S'GCC_3.4.2'
p243
sg14
g15
sba(iFingerPrint.swirl
Dependency
p244
(dp245
g23
Nsg24
S'libgcc_s.so.1'
p246
sg26
g27
sg28
S'GCC_3.4.4'
p247
sg14
g15
sba(iFingerPrint.swirl
Dependency
p248
(dp249
g23
Nsg24
S'libgcc_s.so.1'
p250
sg26
g27
sg28
S'GCC_3.4'
p251
sg14
g15
sba(iFingerPrint.swirl
Dependency
p252
(dp253
g23
Nsg24
S'libgcc_s.so.1'
p254
sg26
g27
sg28
S'GCC_4.0.0'
p255
sg14
g15
sba(iFingerPrint.swirl
Dependency
p256
(dp257
g23
Nsg24
S'libgcc_s.so.1'
p258
sg26
g27
sg28
S'GCC_4.2.0'
p259
sg14
g15
sbasg59
(lp260
sg61
S'/lib64/libgcc_s-4.1.2-20080825.so.1'
p261
sg26
g27
sba(iFingerPrint.swirl
SwirlFile
p262
(dp263
g10
(lp264
S'/lib64/libm.so.6'
p265
asg12
(lp266
sg14
g15
sg16
S'08fac7aeb82171e0eaf81ecfbee0ae56'
p267
sg18
S'glibc-2.5-107.x86_64'
p268
sg19
(lp269
(iFingerPrint.swirl
Dependency
p270
(dp271
g23
Nsg24
S'ld-linux-x86-64.so.2'
p272
sg26
g27
sg28
g29
sg14
g15
sba(iFingerPrint.swirl
Dependency
p273
(dp274
g23
Nsg24
S'libc.so.6'
p275
sg26
g27
sg28
g29
sg14
g15
sba(iFingerPrint.swirl
Dependency
p276
(dp277
g23
Nsg24
S'libc.so.6'
p278
sg26
g27
sg28
S'GLIBC_2.2.5'
p279
sg14
g15
sbasg57
(lp280
(iFingerPrint.swirl
Dependency
p281
(dp282
g23
Nsg24
S'libm.so.6'
p283
sg26
g27
sg28
g29
sg14
g15
sba(iFingerPrint.swirl
Dependency
p284
(dp285
g23
Nsg24
S'libm.so.6'
p286
sg26
g27
sg28
S'GLIBC_2.2.5'
p287
sg14
g15
sba(iFingerPrint.swirl
Dependency
p288
(dp289
g23
Nsg24
S'libm.so.6'
p290
sg26
g27
sg28
S'GLIBC_2.4'
p291
sg14
g15
sbasg59
(lp292
sg61
S'/lib64/libm-2.5.so'
p293
sg26
g27
sba(iFingerPrint.swirl
SwirlFile
p294
(dp295
g10
(lp296
S'/usr/lib64/libstdc++.so.6'
p297
asg12
(lp298
sg14
g15
sg16
S'8b3c84fe98fbed844690623eaaa3b052'
p299
sg18
S'libstdc++-4.1.2-54.el5.x86_64'
p300
sg19
(lp301
(iFingerPrint.swirl
Dependency
p302
(dp303
g23
Nsg24
S'ld-linux-x86-64.so.2'
p304
sg26
g27
sg28
g29
sg14
g15
sba(iFingerPrint.swirl
Dependency
p305
(dp306
g23
Nsg24
S'ld-linux-x86-64.so.2'
p307
sg26
g27
sg28
S'GLIBC_2.3'
p308
sg14
g15
sba(iFingerPrint.swirl
Dependency
p309
(dp310
g23
Nsg24
S'libc.so.6'
p311
sg26
g27
sg28
g29
sg14
g15
sba(iFingerPrint.swirl
Dependency
p312
(dp313
g23
Nsg24
S'libc.so.6'
p314
sg26
g27
sg28
S'GLIBC_2.2.5'
p315
sg14
g15
sba(iFingerPrint.swirl
Dependency
p316
(dp317
g23
Nsg24
S'libc.so.6'
p318
sg26
g27
sg28
S'GLIBC_2.3.2'
p319
sg14
g15
sba(iFingerPrint.swirl
Dependency
p320
(dp321
g23
Nsg24
S'libc.so.6'
p322
sg26
g27
sg28
S'GLIBC_2.3'
p323
sg14
g15
sba(iFingerPrint.swirl
Dependency
p324
(dp325
g23
Nsg24
S'libc.so.6'
p326
sg26
g27
sg28
S'GLIBC_2.4'
p327
sg14
g15
sba(iFingerPrint.swirl
Dependency
p328
(dp329
g23
Nsg24
S'libgcc_s.so.1'
p330
sg26
g27
sg28
g29
sg14
g15
sba(iFingerPrint.swirl
Dependency
p331
(dp332
g23
Nsg24
S'libgcc_s.so.1'
p333
sg26
g27
sg28
S'GCC_3.0'
p334
sg14
g15
sba(iFingerPrint.swirl
Dependency
p335
(dp336
g23
Nsg24
S'libgcc_s.so.1'
p337
sg26
g27
sg28
S'GCC_3.3'
p338
sg14
g15
sba(iFingerPrint.swirl
Dependency
p339
(dp340
g23
Nsg24
S'libgcc_s.so.1'
p341
sg26
g27
sg28
S'GCC_4.2.0'
p342
sg14
g15
sba(iFingerPrint.swirl
Dependency
p343
(dp344
g23
Nsg24
S'libm.so.6'
p345
sg26
g27
sg28
g29
sg14
g15
sbasg57
(lp346
(iFingerPrint.swirl
Dependency
p347
(dp348
g23
Nsg24
S'libstdc++.so.6'
p349
sg26
g27
sg28
g29
sg14
g15
sba(iFingerPrint.swirl
Dependency
p350
(dp351
g23
Nsg24
S'libstdc++.so.6'
p352
sg26
g27
sg28
S'CXXABI_1.3.1'
p353
sg14
g15
sba(iFingerPrint.swirl
Dependency
p354
(dp355
g23
Nsg24
S'libstdc++.so.6'
p356
sg26
g27
sg28
S'CXXABI_1.3'
p357
sg14
g15
sba(iFingerPrint.swirl
Dependency
p358
(dp359
g23
Nsg24
S'libstdc++.so.6'
p360
sg26
g27
sg28
S'GLIBCXX_3.4.1'
p361
sg14
g15
sba(iFingerPrint.swirl
Dependency
p362
(dp363
g23
Nsg24
S'libstdc++.so.6'
p364
sg26
g27
sg28
S'GLIBCXX_3.4.2'
p365
sg14
g15
sba(iFingerPrint.swirl
Dependency
p366
(dp367
g23
Nsg24
S'libstdc++.so.6'
p368
sg26
g27
sg28
S'GLIBCXX_3.4.3'
p369
sg14
g15
sba(iFingerPrint.swirl
Dependency
p370
(dp371
g23
Nsg24
S'libstdc++.so.6'
p372
sg26
g27
sg28
S'GLIBCXX_3.4.4'
p373
sg14
g15
sba(iFingerPrint.swirl
Dependency
p374
(dp375
g23
Nsg24
S'libstdc++.so.6'
p376
sg26
g27
sg28
S'GLIBCXX_3.4.5'
p377
sg14
g15
sba(iFingerPrint.swirl
Dependency
p378
(dp379
g23
Nsg24
S'libstdc++.so.6'
p380
sg26
g27
sg28
S'GLIBCXX_3.4'
p381
sg14
g15
sba(iFingerPrint.swirl
Dependency
p382
(dp383
g23
Nsg24
S'libstdc++.so.6'
p384
sg26
g27
sg28
S'GLIBCXX_3.4.6'
p385
sg14
g15
sba(iFingerPrint.swirl
Dependency
p386
(dp387
g23
Nsg24
S'libstdc++.so.6'
p388
sg26
g27
sg28
S'GLIBCXX_3.4.7'
p389
sg14
g15
sba(iFingerPrint.swirl
Dependency
p390
(dp391
g23
Nsg24
S'libstdc++.so.6'
p392
sg26
g27
sg28
S'GLIBCXX_3.4.8'
p393
sg14
g15
sbasg59
(lp394
sg61
S'/usr/lib64/libstdc++.so.6.0.8'
p395
sg26
g27
sba(iFingerPrint.swirl
SwirlFile
p396
(dp397
g10
(lp398
sg12
(lp399
sg14
g15
sg16
S'e703db2ec4096046b9ebf0dc3e318319'
p400
sg18
Nsg19
(lp401
(iFingerPrint.swirl
Dependency
p402
(dp403
g23
Nsg24
S'ld-linux-x86-64.so.2'
p404
sg26
g27
sg28
g29
sg14
g15
sba(iFingerPrint.swirl
Dependency
p405
(dp406
g23
Nsg24
S'libc.so.6'
p407
sg26
g27
sg28
g29
sg14
g15
sba(iFingerPrint.swirl
Dependency
p408
(dp409
g23
Nsg24
S'libc.so.6'
p410
sg26
g27
sg28
S'GLIBC_2.2.5'
p411
sg14
g15
sba(iFingerPrint.swirl
Dependency
p412
(dp413
g23
Nsg24
S'libdl.so.2'
p414
sg26
g27
sg28
g29
sg14
g15
sba(iFingerPrint.swirl
Dependency
p415
(dp416
g23
Nsg24
S'libgcc_s.so.1'
p417
sg26
g27
sg28
g29
sg14
g15
sba(iFingerPrint.swirl
Dependency
p418
(dp419
g23
Nsg24
S'libgcc_s.so.1'
p420
sg26
g27
sg28
S'GCC_3.0'
p421
sg14
g15
sba(iFingerPrint.swirl
Dependency
p422
(dp423
g23
Nsg24
S'libm.so.6'
p424
sg26
g27
sg28
g29
sg14
g15
sba(iFingerPrint.swirl
Dependency
p425
(dp426
g23
Nsg24
S'libstdc++.so.6'
p427
sg26
g27
sg28
g29
sg14
g15
sba(iFingerPrint.swirl
Dependency
p428
(dp429
g23
Nsg24
S'libstdc++.so.6'
p430
sg26
g27
sg28
S'CXXABI_1.3'
p431
sg14
g15
sba(iFingerPrint.swirl
Dependency
p432
(dp433
g23
Nsg24
S'libstdc++.so.6'
p434
sg26
g27
sg28
S'GLIBCXX_3.4'
p435
sg14
g15
sbasg57
(lp436
sg59
(lp437
sg61
S'autodock/bin/autodock4'
p438
sg26
g27
sbasS'cmdLine'
p439
NsS'creationDate'
p440
cdatetime
datetime
p441
(S'\x07\xdd\x03\x1d\x00\x184\x0e3"'
p442
tp443
Rp444
sS'name'
p445
S'Swirl'
p446
sS'execedFiles'
p447
(lp448
g8
ag396
asb.