ccopy_reg
_reconstructor
p0
(cFingerPrint.swirl
Swirl
p1
c__builtin__
object
p2
Ntp3
Rp4
(dp5
S'swirlFiles'
p6
(lp7
g0
(cFingerPrint.swirl
SwirlFile
p8
g2
Ntp9
Rp10
(dp11
S'type'
p12
S'ELF'
p13
sS'md5sum'
p14
NsS'pluginName'
p15
g13
sS'dyn'
p16
I01
sS'dependencies'
p17
(lp18
g0
(cFingerPrint.swirl
Dependency
p19
g2
Ntp20
Rp21
(dp22
S'hashList'
p23
(lp24
NaS'96ac7a92649681969719995b9e98a874'
p25
asS'packageList'
p26
(lp27
NaS'glibc-2.5-81.el5_8.7.x86_64'
p28
asS'pathList'
p29
(lp30
S'/lib64/libc.so.6'
p31
aS'/lib64/libc-2.5.so'
p32
asg15
g13
sS'depname'
p33
S'libc.so.6()(64bit)'
p34
sS'arch'
p35
S'x86_64'
p36
sbag0
(g19
g2
Ntp37
Rp38
(dp39
g23
g24
sg26
g27
sg29
g30
sg15
g13
sg33
S'libc.so.6(GLIBC_2.2.5)(64bit)'
p40
sg35
g36
sbag0
(g19
g2
Ntp41
Rp42
(dp43
g23
(lp44
NaS'0390e33e93f9c624041b7997e4c7c500'
p45
asg26
(lp46
NaS'glibc-2.5-81.el5_8.7.x86_64'
p47
asg29
(lp48
S'/lib64/libdl.so.2'
p49
aS'/lib64/libdl-2.5.so'
p50
asg15
g13
sg33
S'libdl.so.2()(64bit)'
p51
sg35
g36
sbag0
(g19
g2
Ntp52
Rp53
(dp54
g23
(lp55
NaS'415778cd15d6c99a8874352993b578ed'
p56
asg26
(lp57
NaS'libgcc-4.1.2-52.el5_8.1.x86_64'
p58
asg29
(lp59
S'/lib64/libgcc_s.so.1'
p60
aS'/lib64/libgcc_s-4.1.2-20080825.so.1'
p61
asg15
g13
sg33
S'libgcc_s.so.1()(64bit)'
p62
sg35
g36
sbag0
(g19
g2
Ntp63
Rp64
(dp65
g23
(lp66
NaS'86af883be96b0519e36b365342b362d1'
p67
asg26
(lp68
NaS'glibc-2.5-81.el5_8.7.x86_64'
p69
asg29
(lp70
S'/lib64/libm.so.6'
p71
aS'/lib64/libm-2.5.so'
p72
asg15
g13
sg33
S'libm.so.6()(64bit)'
p73
sg35
g36
sbag0
(g19
g2
Ntp74
Rp75
(dp76
g23
(lp77
NaS'9af7899de536ed5ff1f93c4946da0969'
p78
asg26
(lp79
NaS'libstdc++-4.1.2-52.el5_8.1.x86_64'
p80
asg29
(lp81
S'/usr/lib64/libstdc++.so.6'
p82
aS'/usr/lib64/libstdc++.so.6.0.8'
p83
asg15
g13
sg33
S'libstdc++.so.6()(64bit)'
p84
sg35
g36
sbag0
(g19
g2
Ntp85
Rp86
(dp87
g23
g77
sg26
g79
sg29
g81
sg15
g13
sg33
S'libstdc++.so.6(GLIBCXX_3.4)(64bit)'
p88
sg35
g36
sbasS'provides'
p89
(lp90
sS'path'
p91
S'autodock/bin/autogrid4'
p92
sg35
g36
sbag0
(g8
g2
Ntp93
Rp94
(dp95
g12
g13
sg14
Nsg15
g13
sg16
I01
sg17
(lp96
g0
(g19
g2
Ntp97
Rp98
(dp99
g23
g24
sg26
g27
sg29
g30
sg15
g13
sg33
S'libc.so.6()(64bit)'
p100
sg35
g36
sbag0
(g19
g2
Ntp101
Rp102
(dp103
g23
g24
sg26
g27
sg29
g30
sg15
g13
sg33
S'libc.so.6(GLIBC_2.2.5)(64bit)'
p104
sg35
g36
sbag0
(g19
g2
Ntp105
Rp106
(dp107
g23
g44
sg26
g46
sg29
g48
sg15
g13
sg33
S'libdl.so.2()(64bit)'
p108
sg35
g36
sbag0
(g19
g2
Ntp109
Rp110
(dp111
g23
g55
sg26
g57
sg29
g59
sg15
g13
sg33
S'libgcc_s.so.1()(64bit)'
p112
sg35
g36
sbag0
(g19
g2
Ntp113
Rp114
(dp115
g23
g55
sg26
g57
sg29
g59
sg15
g13
sg33
S'libgcc_s.so.1(GCC_3.0)(64bit)'
p116
sg35
g36
sbag0
(g19
g2
Ntp117
Rp118
(dp119
g23
g66
sg26
g68
sg29
g70
sg15
g13
sg33
S'libm.so.6()(64bit)'
p120
sg35
g36
sbag0
(g19
g2
Ntp121
Rp122
(dp123
g23
g77
sg26
g79
sg29
g81
sg15
g13
sg33
S'libstdc++.so.6()(64bit)'
p124
sg35
g36
sbag0
(g19
g2
Ntp125
Rp126
(dp127
g23
g77
sg26
g79
sg29
g81
sg15
g13
sg33
S'libstdc++.so.6(GLIBCXX_3.4)(64bit)'
p128
sg35
g36
sbasg89
(lp129
sg91
S'autodock/bin/autodock4'
p130
sg35
g36
sbasS'creationDate'
p131
cdatetime
datetime
p132
(S'\x07\xdc\t\x19\x16!\x13\x05\xb3\x86'
p133
tp134
Rp135
sS'name'
p136
S'Swirl'
p137
sb.