ccopy_reg
_reconstructor
p0
(cFingerPrint.swirl
Swirl
p1
c__builtin__
object
p2
Ntp3
Rp4
(dp5
S'swirlFiles'
p6
(lp7
g0
(cFingerPrint.swirl
SwirlFile
p8
g2
Ntp9
Rp10
(dp11
S'type'
p12
S'Data'
p13
sS'md5sum'
p14
NsS'pluginName'
p15
NsS'dyn'
p16
I01
sS'dependencies'
p17
(lp18
sS'provides'
p19
(lp20
sS'path'
p21
S'namd/bin/charmrun'
p22
sS'arch'
p23
Nsbag0
(g8
g2
Ntp24
Rp25
(dp26
g12
S'ELF'
p27
sg14
Nsg15
g27
sg16
I01
sg17
(lp28
g0
(cFingerPrint.swirl
Dependency
p29
g2
Ntp30
Rp31
(dp32
S'hashList'
p33
(lp34
NaS'5da3e34c5063448c205e71b1fe3639bc  /lib64/libc-2.5.so'
p35
asS'packageList'
p36
(lp37
NaS'glibc-2.5-58.el5_6.4'
p38
asS'pathList'
p39
(lp40
S'/lib64/libc.so.6'
p41
aS'/lib64/libc-2.5.so'
p42
asg15
g27
sS'depname'
p43
S'libc.so.6()(64bit)'
p44
sg23
S'x86_64'
p45
sbag0
(g29
g2
Ntp46
Rp47
(dp48
g33
g34
sg36
g37
sg39
g40
sg15
g27
sg43
S'libc.so.6(GLIBC_2.2.5)(64bit)'
p49
sg23
g45
sbag0
(g29
g2
Ntp50
Rp51
(dp52
g33
(lp53
NaS'87fde6c2e5580be87586ee8e74326f65  /lib64/libdl-2.5.so'
p54
asg36
(lp55
NaS'glibc-2.5-58.el5_6.4'
p56
asg39
(lp57
S'/lib64/libdl.so.2'
p58
aS'/lib64/libdl-2.5.so'
p59
asg15
g27
sg43
S'libdl.so.2()(64bit)'
p60
sg23
g45
sbag0
(g29
g2
Ntp61
Rp62
(dp63
g33
(lp64
NaS'737316c9bc4c6a1c61c8ca84d054ae26  /lib64/libgcc_s-4.1.2-20080825.so.1'
p65
asg36
(lp66
NaS'libgcc-4.1.2-50.el5'
p67
asg39
(lp68
S'/lib64/libgcc_s.so.1'
p69
aS'/lib64/libgcc_s-4.1.2-20080825.so.1'
p70
asg15
g27
sg43
S'libgcc_s.so.1()(64bit)'
p71
sg23
g45
sbag0
(g29
g2
Ntp72
Rp73
(dp74
g33
(lp75
NaS'183a2f04a24da2db918ea503a8d401fe  /lib64/libm-2.5.so'
p76
asg36
(lp77
NaS'glibc-2.5-58.el5_6.4'
p78
asg39
(lp79
S'/lib64/libm.so.6'
p80
aS'/lib64/libm-2.5.so'
p81
asg15
g27
sg43
S'libm.so.6()(64bit)'
p82
sg23
g45
sbasg19
(lp83
sg21
S'namd/bin/flipbinpdb'
p84
sg23
g45
sbag0
(g8
g2
Ntp85
Rp86
(dp87
g12
g27
sg14
Nsg15
g27
sg16
I01
sg17
(lp88
g0
(g29
g2
Ntp89
Rp90
(dp91
g33
g34
sg36
g37
sg39
g40
sg15
g27
sg43
S'libc.so.6()(64bit)'
p92
sg23
g45
sbag0
(g29
g2
Ntp93
Rp94
(dp95
g33
g34
sg36
g37
sg39
g40
sg15
g27
sg43
S'libc.so.6(GLIBC_2.2.5)(64bit)'
p96
sg23
g45
sbag0
(g29
g2
Ntp97
Rp98
(dp99
g33
g53
sg36
g55
sg39
g57
sg15
g27
sg43
S'libdl.so.2()(64bit)'
p100
sg23
g45
sbag0
(g29
g2
Ntp101
Rp102
(dp103
g33
g64
sg36
g66
sg39
g68
sg15
g27
sg43
S'libgcc_s.so.1()(64bit)'
p104
sg23
g45
sbag0
(g29
g2
Ntp105
Rp106
(dp107
g33
g75
sg36
g77
sg39
g79
sg15
g27
sg43
S'libm.so.6()(64bit)'
p108
sg23
g45
sbasg19
(lp109
sg21
S'namd/bin/flipdcd'
p110
sg23
g45
sbag0
(g8
g2
Ntp111
Rp112
(dp113
g12
g27
sg14
Nsg15
g27
sg16
I01
sg17
(lp114
g0
(g29
g2
Ntp115
Rp116
(dp117
g33
g34
sg36
g37
sg39
g40
sg15
g27
sg43
S'libc.so.6()(64bit)'
p118
sg23
g45
sbag0
(g29
g2
Ntp119
Rp120
(dp121
g33
g34
sg36
g37
sg39
g40
sg15
g27
sg43
S'libc.so.6(GLIBC_2.2.5)(64bit)'
p122
sg23
g45
sbag0
(g29
g2
Ntp123
Rp124
(dp125
g33
g34
sg36
g37
sg39
g40
sg15
g27
sg43
S'libc.so.6(GLIBC_2.3)(64bit)'
p126
sg23
g45
sbag0
(g29
g2
Ntp127
Rp128
(dp129
g33
g34
sg36
g37
sg39
g40
sg15
g27
sg43
S'libc.so.6(GLIBC_2.3.4)(64bit)'
p130
sg23
g45
sbag0
(g29
g2
Ntp131
Rp132
(dp133
g33
g53
sg36
g55
sg39
g57
sg15
g27
sg43
S'libdl.so.2()(64bit)'
p134
sg23
g45
sbag0
(g29
g2
Ntp135
Rp136
(dp137
g33
(lp138
sg36
(lp139
sg39
(lp140
sg15
g27
sg43
S'libfftw3f.so.3()(64bit)'
p141
sg23
g45
sbag0
(g29
g2
Ntp142
Rp143
(dp144
g33
g64
sg36
g66
sg39
g68
sg15
g27
sg43
S'libgcc_s.so.1()(64bit)'
p145
sg23
g45
sbag0
(g29
g2
Ntp146
Rp147
(dp148
g33
g64
sg36
g66
sg39
g68
sg15
g27
sg43
S'libgcc_s.so.1(GCC_3.0)(64bit)'
p149
sg23
g45
sbag0
(g29
g2
Ntp150
Rp151
(dp152
g33
g75
sg36
g77
sg39
g79
sg15
g27
sg43
S'libm.so.6()(64bit)'
p153
sg23
g45
sbag0
(g29
g2
Ntp154
Rp155
(dp156
g33
(lp157
sg36
(lp158
sg39
(lp159
sg15
g27
sg43
S'libmpich.so.3()(64bit)'
p160
sg23
g45
sbag0
(g29
g2
Ntp161
Rp162
(dp163
g33
(lp164
sg36
(lp165
sg39
(lp166
sg15
g27
sg43
S'libmpichcxx.so.3()(64bit)'
p167
sg23
g45
sbag0
(g29
g2
Ntp168
Rp169
(dp170
g33
(lp171
sg36
(lp172
sg39
(lp173
sg15
g27
sg43
S'libmpl.so.1()(64bit)'
p174
sg23
g45
sbag0
(g29
g2
Ntp175
Rp176
(dp177
g33
(lp178
sg36
(lp179
sg39
(lp180
sg15
g27
sg43
S'libopa.so.1()(64bit)'
p181
sg23
g45
sbag0
(g29
g2
Ntp182
Rp183
(dp184
g33
(lp185
NaS'f886a197c76e1c1c6da82634fb6b6f05  /lib64/libpthread-2.5.so'
p186
asg36
(lp187
NaS'glibc-2.5-58.el5_6.4'
p188
asg39
(lp189
S'/lib64/libpthread.so.0'
p190
aS'/lib64/libpthread-2.5.so'
p191
asg15
g27
sg43
S'libpthread.so.0()(64bit)'
p192
sg23
g45
sbag0
(g29
g2
Ntp193
Rp194
(dp195
g33
g185
sg36
g187
sg39
g189
sg15
g27
sg43
S'libpthread.so.0(GLIBC_2.2.5)(64bit)'
p196
sg23
g45
sbag0
(g29
g2
Ntp197
Rp198
(dp199
g33
(lp200
NaS'75972dde6297705248f6a8a164cd556f  /lib64/librt-2.5.so'
p201
asg36
(lp202
NaS'glibc-2.5-58.el5_6.4'
p203
asg39
(lp204
S'/lib64/librt.so.1'
p205
aS'/lib64/librt-2.5.so'
p206
asg15
g27
sg43
S'librt.so.1()(64bit)'
p207
sg23
g45
sbag0
(g29
g2
Ntp208
Rp209
(dp210
g33
(lp211
NaS'4c347b0e7f62326513193f6cd8b05c49  /usr/lib64/libstdc++.so.6.0.8'
p212
asg36
(lp213
NaS'libstdc++-4.1.2-50.el5'
p214
asg39
(lp215
S'/usr/lib64/libstdc++.so.6'
p216
aS'/usr/lib64/libstdc++.so.6.0.8'
p217
asg15
g27
sg43
S'libstdc++.so.6()(64bit)'
p218
sg23
g45
sbag0
(g29
g2
Ntp219
Rp220
(dp221
g33
g211
sg36
g213
sg39
g215
sg15
g27
sg43
S'libstdc++.so.6(GLIBCXX_3.4)(64bit)'
p222
sg23
g45
sbasg19
(lp223
sg21
S'namd/bin/namd2'
p224
sg23
g45
sbag0
(g8
g2
Ntp225
Rp226
(dp227
g12
g27
sg14
Nsg15
g27
sg16
I01
sg17
(lp228
g0
(g29
g2
Ntp229
Rp230
(dp231
g33
g34
sg36
g37
sg39
g40
sg15
g27
sg43
S'libc.so.6()(64bit)'
p232
sg23
g45
sbag0
(g29
g2
Ntp233
Rp234
(dp235
g33
g34
sg36
g37
sg39
g40
sg15
g27
sg43
S'libc.so.6(GLIBC_2.2.5)(64bit)'
p236
sg23
g45
sbag0
(g29
g2
Ntp237
Rp238
(dp239
g33
g34
sg36
g37
sg39
g40
sg15
g27
sg43
S'libc.so.6(GLIBC_2.3)(64bit)'
p240
sg23
g45
sbag0
(g29
g2
Ntp241
Rp242
(dp243
g33
g53
sg36
g55
sg39
g57
sg15
g27
sg43
S'libdl.so.2()(64bit)'
p244
sg23
g45
sbag0
(g29
g2
Ntp245
Rp246
(dp247
g33
g64
sg36
g66
sg39
g68
sg15
g27
sg43
S'libgcc_s.so.1()(64bit)'
p248
sg23
g45
sbag0
(g29
g2
Ntp249
Rp250
(dp251
g33
g75
sg36
g77
sg39
g79
sg15
g27
sg43
S'libm.so.6()(64bit)'
p252
sg23
g45
sbasg19
(lp253
sg21
S'namd/bin/psfgen'
p254
sg23
g45
sbasS'creationDate'
p255
cdatetime
datetime
p256
(S'\x07\xdc\t\x15\x14\x1b\x08\x02\xb3r'
p257
tp258
Rp259
sS'name'
p260
S'Swirl'
p261
sb.