ccopy_reg
_reconstructor
p0
(cFingerPrint.swirl
Swirl
p1
c__builtin__
object
p2
Ntp3
Rp4
(dp5
S'ldconf_paths'
p6
(lp7
S'/opt/rocks/lib/mysql'
p8
aS'/lib64'
p9
aS'/usr/lib64'
p10
aS'/opt/rocks/lib'
p11
aS'/opt/ctss/globus/lib'
p12
aS'/opt/pdsh/lib/pdsh'
p13
aS'/opt/torque/lib64'
p14
aS'/usr/lib64/xulrunner-1.9.2'
p15
aS'/lib/i686'
p16
aS'/usr/lib64/sse2'
p17
aS'/usr/lib64/tls'
p18
asS'name'
p19
S'Swirl'
p20
sS'execedFiles'
p21
(lp22
(iFingerPrint.swirl
SwirlFile
p23
(dp24
S'env'
p25
(lp26
sS'links'
p27
(lp28
sS'dynamicDependencies'
p29
(lp30
sS'type'
p31
S'Data'
p32
sS'md5sum'
p33
S'c34bd2131af1f552ee7f8c8939f6fb48'
p34
sS'package'
p35
NsS'staticDependencies'
p36
(lp37
sS'provides'
p38
(lp39
sS'openedFiles'
p40
(dp41
sS'rpaths'
p42
(lp43
sS'path'
p44
S'/home/clem/XsedeTests/compile/gordon/apbs/bin/lib/python2.4/site-packages/ZSI/fault.py'
p45
sS'arch'
p46
Nsba(iFingerPrint.swirl
SwirlFile
p47
(dp48
g25
(lp49
sg27
(lp50
sg29
(lp51
sg31
g32
sg33
S'5c1f8351007fca498bdd8ba3b9f1e6c9'
p52
sg35
Nsg36
(lp53
sg38
(lp54
sg40
(dp55
sg42
(lp56
sg44
S'/home/clem/XsedeTests/compile/gordon/apbs/bin/lib/python2.4/site-packages/ZSI/generate/wsdl2dispatch.py'
p57
sg46
Nsba(iFingerPrint.swirl
SwirlFile
p58
(dp59
g25
(lp60
sg27
(lp61
sg29
(lp62
sg31
g32
sg33
S'8483084fd5e65063defe352f1a32380e'
p63
sg35
Nsg36
(lp64
sg38
(lp65
sg40
(dp66
sg42
(lp67
sg44
S'/home/clem/XsedeTests/compile/gordon/apbs/bin/lib/python2.4/site-packages/ZSI/generate/commands.py'
p68
sg46
Nsba(iFingerPrint.swirl
SwirlFile
p69
(dp70
g25
(lp71
sg27
(lp72
sg29
(lp73
sg31
g32
sg33
S'5c21abdaeb01ea64558d8e2b0501d766'
p74
sg35
Nsg36
(lp75
sg38
(lp76
sg40
(dp77
sg42
(lp78
sg44
S'/home/clem/XsedeTests/compile/gordon/apbs/bin/lib/python2.4/site-packages/ZSI/generate/pyclass.py'
p79
sg46
Nsba(iFingerPrint.swirl
SwirlFile
p80
(dp81
g25
(lp82
sg27
(lp83
sg29
(lp84
sg31
g32
sg33
S'd2e2d980a54522f863a88012aa25b1a1'
p85
sg35
Nsg36
(lp86
sg38
(lp87
sg40
(dp88
sg42
(lp89
sg44
S'/home/clem/XsedeTests/compile/gordon/apbs/bin/lib/python2.4/site-packages/ZSI/generate/wsdl2python.py'
p90
sg46
Nsba(iFingerPrint.swirl
SwirlFile
p91
(dp92
g25
(lp93
sg27
(lp94
sg29
(lp95
sg31
g32
sg33
S'74cf49f796249d1cff7e6de8201fd5bc'
p96
sg35
Nsg36
(lp97
sg38
(lp98
sg40
(dp99
sg42
(lp100
sg44
S'/home/clem/XsedeTests/compile/gordon/apbs/bin/lib/python2.4/site-packages/ZSI/generate/__init__.py'
p101
sg46
Nsba(iFingerPrint.swirl
SwirlFile
p102
(dp103
g25
(lp104
sg27
(lp105
sg29
(lp106
sg31
g32
sg33
S'7154be9af74e310258bbe9e7018eb5dd'
p107
sg35
Nsg36
(lp108
sg38
(lp109
sg40
(dp110
sg42
(lp111
sg44
S'/home/clem/XsedeTests/compile/gordon/apbs/bin/lib/python2.4/site-packages/ZSI/generate/utility.py'
p112
sg46
Nsba(iFingerPrint.swirl
SwirlFile
p113
(dp114
g25
(lp115
sg27
(lp116
sg29
(lp117
sg31
g32
sg33
S'd7256ade401a31d65cb0130dc10bdb78'
p118
sg35
Nsg36
(lp119
sg38
(lp120
sg40
(dp121
sg42
(lp122
sg44
S'/home/clem/XsedeTests/compile/gordon/apbs/bin/lib/python2.4/site-packages/ZSI/generate/containers.py'
p123
sg46
Nsba(iFingerPrint.swirl
SwirlFile
p124
(dp125
g25
(lp126
sg27
(lp127
sg29
(lp128
sg31
g32
sg33
S'a4e78231308b21ba2f722fd34824e768'
p129
sg35
Nsg36
(lp130
sg38
(lp131
sg40
(dp132
sg42
(lp133
sg44
S'/home/clem/XsedeTests/compile/gordon/apbs/bin/lib/python2.4/site-packages/ZSI/generate/wsdl2dispatch.pyc'
p134
sg46
Nsba(iFingerPrint.swirl
SwirlFile
p135
(dp136
g25
(lp137
sg27
(lp138
sg29
(lp139
sg31
g32
sg33
S'749de2504bd0079082d7188db19f3928'
p140
sg35
Nsg36
(lp141
sg38
(lp142
sg40
(dp143
sg42
(lp144
sg44
S'/home/clem/XsedeTests/compile/gordon/apbs/bin/lib/python2.4/site-packages/ZSI/generate/commands.pyc'
p145
sg46
Nsba(iFingerPrint.swirl
SwirlFile
p146
(dp147
g25
(lp148
sg27
(lp149
sg29
(lp150
sg31
g32
sg33
S'2fbe5c1c02cbcc92a04ef04edc2c8c8c'
p151
sg35
Nsg36
(lp152
sg38
(lp153
sg40
(dp154
sg42
(lp155
sg44
S'/home/clem/XsedeTests/compile/gordon/apbs/bin/lib/python2.4/site-packages/ZSI/generate/pyclass.pyc'
p156
sg46
Nsba(iFingerPrint.swirl
SwirlFile
p157
(dp158
g25
(lp159
sg27
(lp160
sg29
(lp161
sg31
g32
sg33
S'ea06ad7b0df603bd4e3371ceebfa2238'
p162
sg35
Nsg36
(lp163
sg38
(lp164
sg40
(dp165
sg42
(lp166
sg44
S'/home/clem/XsedeTests/compile/gordon/apbs/bin/lib/python2.4/site-packages/ZSI/generate/wsdl2python.pyc'
p167
sg46
Nsba(iFingerPrint.swirl
SwirlFile
p168
(dp169
g25
(lp170
sg27
(lp171
sg29
(lp172
sg31
g32
sg33
S'c4933ff3fefd7d9727ffc215482e0acf'
p173
sg35
Nsg36
(lp174
sg38
(lp175
sg40
(dp176
sg42
(lp177
sg44
S'/home/clem/XsedeTests/compile/gordon/apbs/bin/lib/python2.4/site-packages/ZSI/generate/__init__.pyc'
p178
sg46
Nsba(iFingerPrint.swirl
SwirlFile
p179
(dp180
g25
(lp181
sg27
(lp182
sg29
(lp183
sg31
g32
sg33
S'68c9686ea60e4beccbba6bb1bf1ecce5'
p184
sg35
Nsg36
(lp185
sg38
(lp186
sg40
(dp187
sg42
(lp188
sg44
S'/home/clem/XsedeTests/compile/gordon/apbs/bin/lib/python2.4/site-packages/ZSI/generate/utility.pyc'
p189
sg46
Nsba(iFingerPrint.swirl
SwirlFile
p190
(dp191
g25
(lp192
sg27
(lp193
sg29
(lp194
sg31
g32
sg33
S'16452de201697dc6c20e63593cb3389d'
p195
sg35
Nsg36
(lp196
sg38
(lp197
sg40
(dp198
sg42
(lp199
sg44
S'/home/clem/XsedeTests/compile/gordon/apbs/bin/lib/python2.4/site-packages/ZSI/generate/containers.pyc'
p200
sg46
Nsba(iFingerPrint.swirl
SwirlFile
p201
(dp202
g25
(lp203
sg27
(lp204
sg29
(lp205
sg31
g32
sg33
S'd01544e36e10085859773fcd4b935992'
p206
sg35
Nsg36
(lp207
sg38
(lp208
sg40
(dp209
sg42
(lp210
sg44
S'/home/clem/XsedeTests/compile/gordon/apbs/bin/lib/python2.4/site-packages/ZSI/TCapache.py'
p211
sg46
Nsba(iFingerPrint.swirl
SwirlFile
p212
(dp213
g25
(lp214
sg27
(lp215
sg29
(lp216
sg31
g32
sg33
S'd047baf3c12603d81c4ef9717252460c'
p217
sg35
Nsg36
(lp218
sg38
(lp219
sg40
(dp220
sg42
(lp221
sg44
S'/home/clem/XsedeTests/compile/gordon/apbs/bin/lib/python2.4/site-packages/ZSI/digest_auth.py'
p222
sg46
Nsba(iFingerPrint.swirl
SwirlFile
p223
(dp224
g25
(lp225
sg27
(lp226
sg29
(lp227
sg31
g32
sg33
S'91444c319c7cba575bc440b8c6c96678'
p228
sg35
Nsg36
(lp229
sg38
(lp230
sg40
(dp231
sg42
(lp232
sg44
S'/home/clem/XsedeTests/compile/gordon/apbs/bin/lib/python2.4/site-packages/ZSI/TCcompound.py'
p233
sg46
Nsba(iFingerPrint.swirl
SwirlFile
p234
(dp235
g25
(lp236
sg27
(lp237
sg29
(lp238
sg31
g32
sg33
S'dc9e71b2f68be066eb1a443b8dc13034'
p239
sg35
Nsg36
(lp240
sg38
(lp241
sg40
(dp242
sg42
(lp243
sg44
S'/home/clem/XsedeTests/compile/gordon/apbs/bin/lib/python2.4/site-packages/ZSI/wstools/Namespaces.py'
p244
sg46
Nsba(iFingerPrint.swirl
SwirlFile
p245
(dp246
g25
(lp247
sg27
(lp248
sg29
(lp249
sg31
g32
sg33
S'a8b55c3881a27b7efa4337377c4cb0fc'
p250
sg35
Nsg36
(lp251
sg38
(lp252
sg40
(dp253
sg42
(lp254
sg44
S'/home/clem/XsedeTests/compile/gordon/apbs/bin/lib/python2.4/site-packages/ZSI/wstools/TimeoutSocket.py'
p255
sg46
Nsba(iFingerPrint.swirl
SwirlFile
p256
(dp257
g25
(lp258
sg27
(lp259
sg29
(lp260
sg31
g32
sg33
S'9c1e75c0055973270c577c3fc46ca7ea'
p261
sg35
Nsg36
(lp262
sg38
(lp263
sg40
(dp264
sg42
(lp265
sg44
S'/home/clem/XsedeTests/compile/gordon/apbs/bin/lib/python2.4/site-packages/ZSI/wstools/logging.py'
p266
sg46
Nsba(iFingerPrint.swirl
SwirlFile
p267
(dp268
g25
(lp269
sg27
(lp270
sg29
(lp271
sg31
g32
sg33
S'555cfd6e4270fb72be9128dc30dd0200'
p272
sg35
Nsg36
(lp273
sg38
(lp274
sg40
(dp275
sg42
(lp276
sg44
S'/home/clem/XsedeTests/compile/gordon/apbs/bin/lib/python2.4/site-packages/ZSI/wstools/Utility.py'
p277
sg46
Nsba(iFingerPrint.swirl
SwirlFile
p278
(dp279
g25
(lp280
sg27
(lp281
sg29
(lp282
sg31
g32
sg33
S'ace0c07e4badc1be46da28981d8a0481'
p283
sg35
Nsg36
(lp284
sg38
(lp285
sg40
(dp286
sg42
(lp287
sg44
S'/home/clem/XsedeTests/compile/gordon/apbs/bin/lib/python2.4/site-packages/ZSI/wstools/c14n.py'
p288
sg46
Nsba(iFingerPrint.swirl
SwirlFile
p289
(dp290
g25
(lp291
sg27
(lp292
sg29
(lp293
sg31
g32
sg33
S'db24b7f13c0d0a3e9144f0173a80c9a6'
p294
sg35
Nsg36
(lp295
sg38
(lp296
sg40
(dp297
sg42
(lp298
sg44
S'/home/clem/XsedeTests/compile/gordon/apbs/bin/lib/python2.4/site-packages/ZSI/wstools/XMLname.py'
p299
sg46
Nsba(iFingerPrint.swirl
SwirlFile
p300
(dp301
g25
(lp302
sg27
(lp303
sg29
(lp304
sg31
g32
sg33
S'8cbefa901bdb94529f801d260e68efd6'
p305
sg35
Nsg36
(lp306
sg38
(lp307
sg40
(dp308
sg42
(lp309
sg44
S'/home/clem/XsedeTests/compile/gordon/apbs/bin/lib/python2.4/site-packages/ZSI/wstools/WSDLTools.py'
p310
sg46
Nsba(iFingerPrint.swirl
SwirlFile
p311
(dp312
g25
(lp313
sg27
(lp314
sg29
(lp315
sg31
g32
sg33
S'af5e422eec34f3af1695de734814167d'
p316
sg35
Nsg36
(lp317
sg38
(lp318
sg40
(dp319
sg42
(lp320
sg44
S'/home/clem/XsedeTests/compile/gordon/apbs/bin/lib/python2.4/site-packages/ZSI/wstools/XMLSchema.py'
p321
sg46
Nsba(iFingerPrint.swirl
SwirlFile
p322
(dp323
g25
(lp324
sg27
(lp325
sg29
(lp326
sg31
g32
sg33
S'ab051b7c9dfbce84eb690839aa70b532'
p327
sg35
Nsg36
(lp328
sg38
(lp329
sg40
(dp330
sg42
(lp331
sg44
S'/home/clem/XsedeTests/compile/gordon/apbs/bin/lib/python2.4/site-packages/ZSI/wstools/__init__.py'
p332
sg46
Nsba(iFingerPrint.swirl
SwirlFile
p333
(dp334
g25
(lp335
sg27
(lp336
sg29
(lp337
sg31
g32
sg33
S'db744f04ba69d1d3cc63c7a0f2950acf'
p338
sg35
Nsg36
(lp339
sg38
(lp340
sg40
(dp341
sg42
(lp342
sg44
S'/home/clem/XsedeTests/compile/gordon/apbs/bin/lib/python2.4/site-packages/ZSI/wstools/UserTuple.py'
p343
sg46
Nsba(iFingerPrint.swirl
SwirlFile
p344
(dp345
g25
(lp346
sg27
(lp347
sg29
(lp348
sg31
g32
sg33
S'6a8d24209d284c7e011b61e5ac438eab'
p349
sg35
Nsg36
(lp350
sg38
(lp351
sg40
(dp352
sg42
(lp353
sg44
S'/home/clem/XsedeTests/compile/gordon/apbs/bin/lib/python2.4/site-packages/ZSI/wstools/Namespaces.pyc'
p354
sg46
Nsba(iFingerPrint.swirl
SwirlFile
p355
(dp356
g25
(lp357
sg27
(lp358
sg29
(lp359
sg31
g32
sg33
S'a11403d58936c896c8af20a34231bee5'
p360
sg35
Nsg36
(lp361
sg38
(lp362
sg40
(dp363
sg42
(lp364
sg44
S'/home/clem/XsedeTests/compile/gordon/apbs/bin/lib/python2.4/site-packages/ZSI/wstools/TimeoutSocket.pyc'
p365
sg46
Nsba(iFingerPrint.swirl
SwirlFile
p366
(dp367
g25
(lp368
sg27
(lp369
sg29
(lp370
sg31
g32
sg33
S'24b5ca59e4056fa6ad7bf1aaa670288a'
p371
sg35
Nsg36
(lp372
sg38
(lp373
sg40
(dp374
sg42
(lp375
sg44
S'/home/clem/XsedeTests/compile/gordon/apbs/bin/lib/python2.4/site-packages/ZSI/wstools/logging.pyc'
p376
sg46
Nsba(iFingerPrint.swirl
SwirlFile
p377
(dp378
g25
(lp379
sg27
(lp380
sg29
(lp381
sg31
g32
sg33
S'044ebe6785ee10100aa12ff08dd7967c'
p382
sg35
Nsg36
(lp383
sg38
(lp384
sg40
(dp385
sg42
(lp386
sg44
S'/home/clem/XsedeTests/compile/gordon/apbs/bin/lib/python2.4/site-packages/ZSI/wstools/Utility.pyc'
p387
sg46
Nsba(iFingerPrint.swirl
SwirlFile
p388
(dp389
g25
(lp390
sg27
(lp391
sg29
(lp392
sg31
g32
sg33
S'd856d1d52c2c8acefed392c76ccbe718'
p393
sg35
Nsg36
(lp394
sg38
(lp395
sg40
(dp396
sg42
(lp397
sg44
S'/home/clem/XsedeTests/compile/gordon/apbs/bin/lib/python2.4/site-packages/ZSI/wstools/c14n.pyc'
p398
sg46
Nsba(iFingerPrint.swirl
SwirlFile
p399
(dp400
g25
(lp401
sg27
(lp402
sg29
(lp403
sg31
g32
sg33
S'a045b2014c01c62fc04a5b42c86487b4'
p404
sg35
Nsg36
(lp405
sg38
(lp406
sg40
(dp407
sg42
(lp408
sg44
S'/home/clem/XsedeTests/compile/gordon/apbs/bin/lib/python2.4/site-packages/ZSI/wstools/XMLname.pyc'
p409
sg46
Nsba(iFingerPrint.swirl
SwirlFile
p410
(dp411
g25
(lp412
sg27
(lp413
sg29
(lp414
sg31
g32
sg33
S'e4600bbede37e4aa45670390ce5b6d6d'
p415
sg35
Nsg36
(lp416
sg38
(lp417
sg40
(dp418
sg42
(lp419
sg44
S'/home/clem/XsedeTests/compile/gordon/apbs/bin/lib/python2.4/site-packages/ZSI/wstools/WSDLTools.pyc'
p420
sg46
Nsba(iFingerPrint.swirl
SwirlFile
p421
(dp422
g25
(lp423
sg27
(lp424
sg29
(lp425
sg31
g32
sg33
S'a7ac9c5454a9a34996b952022e1506b1'
p426
sg35
Nsg36
(lp427
sg38
(lp428
sg40
(dp429
sg42
(lp430
sg44
S'/home/clem/XsedeTests/compile/gordon/apbs/bin/lib/python2.4/site-packages/ZSI/wstools/XMLSchema.pyc'
p431
sg46
Nsba(iFingerPrint.swirl
SwirlFile
p432
(dp433
g25
(lp434
sg27
(lp435
sg29
(lp436
sg31
g32
sg33
S'bfbf4313c9ad00e583ae0c5f21d999bf'
p437
sg35
Nsg36
(lp438
sg38
(lp439
sg40
(dp440
sg42
(lp441
sg44
S'/home/clem/XsedeTests/compile/gordon/apbs/bin/lib/python2.4/site-packages/ZSI/wstools/__init__.pyc'
p442
sg46
Nsba(iFingerPrint.swirl
SwirlFile
p443
(dp444
g25
(lp445
sg27
(lp446
sg29
(lp447
sg31
g32
sg33
S'05d9eb7a9a2d966bafbd84de8cc3a183'
p448
sg35
Nsg36
(lp449
sg38
(lp450
sg40
(dp451
sg42
(lp452
sg44
S'/home/clem/XsedeTests/compile/gordon/apbs/bin/lib/python2.4/site-packages/ZSI/wstools/UserTuple.pyc'
p453
sg46
Nsba(iFingerPrint.swirl
SwirlFile
p454
(dp455
g25
(lp456
sg27
(lp457
sg29
(lp458
sg31
g32
sg33
S'22a7727242186e04a054e18ab93b2922'
p459
sg35
Nsg36
(lp460
sg38
(lp461
sg40
(dp462
sg42
(lp463
sg44
S'/home/clem/XsedeTests/compile/gordon/apbs/bin/lib/python2.4/site-packages/ZSI/wstools/test/README'
p464
sg46
Nsba(iFingerPrint.swirl
SwirlFile
p465
(dp466
g25
(lp467
sg27
(lp468
sg29
(lp469
sg31
g32
sg33
S'022fef44ca8d5e062701c63386aed422'
p470
sg35
Nsg36
(lp471
sg38
(lp472
sg40
(dp473
sg42
(lp474
sg44
S'/home/clem/XsedeTests/compile/gordon/apbs/bin/lib/python2.4/site-packages/ZSI/wstools/test/test_wstools_net.py'
p475
sg46
Nsba(iFingerPrint.swirl
SwirlFile
p476
(dp477
g25
(lp478
sg27
(lp479
sg29
(lp480
sg31
g32
sg33
S'e4ad888e7517766368e16f176802f528'
p481
sg35
Nsg36
(lp482
sg38
(lp483
sg40
(dp484
sg42
(lp485
sg44
S'/home/clem/XsedeTests/compile/gordon/apbs/bin/lib/python2.4/site-packages/ZSI/wstools/test/test_wstools.py'
p486
sg46
Nsba(iFingerPrint.swirl
SwirlFile
p487
(dp488
g25
(lp489
sg27
(lp490
sg29
(lp491
sg31
g32
sg33
S'aad69105ec03de68e92a350beb0b3df1'
p492
sg35
Nsg36
(lp493
sg38
(lp494
sg40
(dp495
sg42
(lp496
sg44
S'/home/clem/XsedeTests/compile/gordon/apbs/bin/lib/python2.4/site-packages/ZSI/wstools/test/config.txt'
p497
sg46
Nsba(iFingerPrint.swirl
SwirlFile
p498
(dp499
g25
(lp500
sg27
(lp501
sg29
(lp502
sg31
g32
sg33
S'dd65e08511e5a0aceee53445c179d869'
p503
sg35
Nsg36
(lp504
sg38
(lp505
sg40
(dp506
sg42
(lp507
sg44
S'/home/clem/XsedeTests/compile/gordon/apbs/bin/lib/python2.4/site-packages/ZSI/wstools/test/test_wsdl.py'
p508
sg46
Nsba(iFingerPrint.swirl
SwirlFile
p509
(dp510
g25
(lp511
sg27
(lp512
sg29
(lp513
sg31
g32
sg33
S'3805b0cdea955c4507804eb780240305'
p514
sg35
Nsg36
(lp515
sg38
(lp516
sg40
(dp517
sg42
(lp518
sg44
S'/home/clem/XsedeTests/compile/gordon/apbs/bin/lib/python2.4/site-packages/ZSI/wstools/test/xmethods.tar.gz'
p519
sg46
Nsba(iFingerPrint.swirl
SwirlFile
p520
(dp521
g25
(lp522
sg27
(lp523
sg29
(lp524
sg31
g32
sg33
S'1ee2842e68c64c7787abda5fdff9ec75'
p525
sg35
Nsg36
(lp526
sg38
(lp527
sg40
(dp528
sg42
(lp529
sg44
S'/home/clem/XsedeTests/compile/gordon/apbs/bin/lib/python2.4/site-packages/ZSI/wstools/test/__init__.py'
p530
sg46
Nsba(iFingerPrint.swirl
SwirlFile
p531
(dp532
g25
(lp533
sg27
(lp534
sg29
(lp535
sg31
g32
sg33
S'140a5c671ee97b3723686f6412818f0e'
p536
sg35
Nsg36
(lp537
sg38
(lp538
sg40
(dp539
sg42
(lp540
sg44
S'/home/clem/XsedeTests/compile/gordon/apbs/bin/lib/python2.4/site-packages/ZSI/wstools/test/.cvsignore'
p541
sg46
Nsba(iFingerPrint.swirl
SwirlFile
p542
(dp543
g25
(lp544
sg27
(lp545
sg29
(lp546
sg31
g32
sg33
S'a55337cdb346512a330931ee90932224'
p547
sg35
Nsg36
(lp548
sg38
(lp549
sg40
(dp550
sg42
(lp551
sg44
S'/home/clem/XsedeTests/compile/gordon/apbs/bin/lib/python2.4/site-packages/ZSI/wstools/test/test_t1.py'
p552
sg46
Nsba(iFingerPrint.swirl
SwirlFile
p553
(dp554
g25
(lp555
sg27
(lp556
sg29
(lp557
sg31
g32
sg33
S'aa9a50c9a4a0e6bfddf41f10bd1327d2'
p558
sg35
Nsg36
(lp559
sg38
(lp560
sg40
(dp561
sg42
(lp562
sg44
S'/home/clem/XsedeTests/compile/gordon/apbs/bin/lib/python2.4/site-packages/ZSI/wstools/test/schema.tar.gz'
p563
sg46
Nsba(iFingerPrint.swirl
SwirlFile
p564
(dp565
g25
(lp566
sg27
(lp567
sg29
(lp568
sg31
g32
sg33
S'0934ca9d08a4681a4c977714fd9a402e'
p569
sg35
Nsg36
(lp570
sg38
(lp571
sg40
(dp572
sg42
(lp573
sg44
S'/home/clem/XsedeTests/compile/gordon/apbs/bin/lib/python2.4/site-packages/ZSI/wstools/ZPL'
p574
sg46
Nsba(iFingerPrint.swirl
SwirlFile
p575
(dp576
g25
(lp577
sg27
(lp578
sg29
(lp579
sg31
g32
sg33
S'5ec11cd42666f0904449f8195657287d'
p580
sg35
Nsg36
(lp581
sg38
(lp582
sg40
(dp583
sg42
(lp584
sg44
S'/home/clem/XsedeTests/compile/gordon/apbs/bin/lib/python2.4/site-packages/ZSI/wstools/license.txt'
p585
sg46
Nsba(iFingerPrint.swirl
SwirlFile
p586
(dp587
g25
(lp588
sg27
(lp589
sg29
(lp590
sg31
g32
sg33
S'140a5c671ee97b3723686f6412818f0e'
p591
sg35
Nsg36
(lp592
sg38
(lp593
sg40
(dp594
sg42
(lp595
sg44
S'/home/clem/XsedeTests/compile/gordon/apbs/bin/lib/python2.4/site-packages/ZSI/wstools/.cvsignore'
p596
sg46
Nsba(iFingerPrint.swirl
SwirlFile
p597
(dp598
g25
(lp599
sg27
(lp600
sg29
(lp601
sg31
g32
sg33
S'84e6eff84c374e2a261f4895f5d7fcfe'
p602
sg35
Nsg36
(lp603
sg38
(lp604
sg40
(dp605
sg42
(lp606
sg44
S'/home/clem/XsedeTests/compile/gordon/apbs/bin/lib/python2.4/site-packages/ZSI/typeinterpreter.py'
p607
sg46
Nsba(iFingerPrint.swirl
SwirlFile
p608
(dp609
g25
(lp610
sg27
(lp611
sg29
(lp612
sg31
g32
sg33
S'b64e30966030518466ce11863e118a4b'
p613
sg35
Nsg36
(lp614
sg38
(lp615
sg40
(dp616
sg42
(lp617
sg44
S'/home/clem/XsedeTests/compile/gordon/apbs/bin/lib/python2.4/site-packages/ZSI/TC.py'
p618
sg46
Nsba(iFingerPrint.swirl
SwirlFile
p619
(dp620
g25
(lp621
sg27
(lp622
sg29
(lp623
sg31
g32
sg33
S'2cf554b1059b2ad20e2cf8b580d157f9'
p624
sg35
Nsg36
(lp625
sg38
(lp626
sg40
(dp627
sg42
(lp628
sg44
S'/home/clem/XsedeTests/compile/gordon/apbs/bin/lib/python2.4/site-packages/ZSI/ServiceProxy.py'
p629
sg46
Nsba(iFingerPrint.swirl
SwirlFile
p630
(dp631
g25
(lp632
sg27
(lp633
sg29
(lp634
sg31
g32
sg33
S'474b26fde57c4e8c862572296e04d430'
p635
sg35
Nsg36
(lp636
sg38
(lp637
sg40
(dp638
sg42
(lp639
sg44
S'/home/clem/XsedeTests/compile/gordon/apbs/bin/lib/python2.4/site-packages/ZSI/ServiceContainer.py'
p640
sg46
Nsba(iFingerPrint.swirl
SwirlFile
p641
(dp642
g25
(lp643
sg27
(lp644
sg29
(lp645
sg31
g32
sg33
S'22d3d9d37ea22974394139c94807ba35'
p646
sg35
Nsg36
(lp647
sg38
(lp648
sg40
(dp649
sg42
(lp650
sg44
S'/home/clem/XsedeTests/compile/gordon/apbs/bin/lib/python2.4/site-packages/ZSI/client.py'
p651
sg46
Nsba(iFingerPrint.swirl
SwirlFile
p652
(dp653
g25
(lp654
sg27
(lp655
sg29
(lp656
sg31
g32
sg33
S'3f0eb73b301767377dc5158b84b7cfef'
p657
sg35
Nsg36
(lp658
sg38
(lp659
sg40
(dp660
sg42
(lp661
sg44
S'/home/clem/XsedeTests/compile/gordon/apbs/bin/lib/python2.4/site-packages/ZSI/dispatch.py'
p662
sg46
Nsba(iFingerPrint.swirl
SwirlFile
p663
(dp664
g25
(lp665
sg27
(lp666
sg29
(lp667
sg31
g32
sg33
S'6fd1ae74c7b36e4b6c37f710393ea618'
p668
sg35
Nsg36
(lp669
sg38
(lp670
sg40
(dp671
sg42
(lp672
sg44
S'/home/clem/XsedeTests/compile/gordon/apbs/bin/lib/python2.4/site-packages/ZSI/auth.py'
p673
sg46
Nsba(iFingerPrint.swirl
SwirlFile
p674
(dp675
g25
(lp676
sg27
(lp677
sg29
(lp678
sg31
g32
sg33
S'fa6b0d38edac5ffc2c10816dc8561992'
p679
sg35
Nsg36
(lp680
sg38
(lp681
sg40
(dp682
sg42
(lp683
sg44
S'/home/clem/XsedeTests/compile/gordon/apbs/bin/lib/python2.4/site-packages/ZSI/TCtimes.py'
p684
sg46
Nsba(iFingerPrint.swirl
SwirlFile
p685
(dp686
g25
(lp687
sg27
(lp688
sg29
(lp689
sg31
g32
sg33
S'cc928e811016d4f2d1926eaee2641214'
p690
sg35
Nsg36
(lp691
sg38
(lp692
sg40
(dp693
sg42
(lp694
sg44
S'/home/clem/XsedeTests/compile/gordon/apbs/bin/lib/python2.4/site-packages/ZSI/TCnumbers.py'
p695
sg46
Nsba(iFingerPrint.swirl
SwirlFile
p696
(dp697
g25
(lp698
sg27
(lp699
sg29
(lp700
sg31
g32
sg33
S'98719cba5c4fa9d41d51f4ed0b42ba9a'
p701
sg35
Nsg36
(lp702
sg38
(lp703
sg40
(dp704
sg42
(lp705
sg44
S'/home/clem/XsedeTests/compile/gordon/apbs/bin/lib/python2.4/site-packages/ZSI/schema.py'
p706
sg46
Nsba(iFingerPrint.swirl
SwirlFile
p707
(dp708
g25
(lp709
sg27
(lp710
sg29
(lp711
sg31
g32
sg33
S'89d344ebd47a947ca263090d57251e3a'
p712
sg35
Nsg36
(lp713
sg38
(lp714
sg40
(dp715
sg42
(lp716
sg44
S'/home/clem/XsedeTests/compile/gordon/apbs/bin/lib/python2.4/site-packages/ZSI/twisted/wsgi.py'
p717
sg46
Nsba(iFingerPrint.swirl
SwirlFile
p718
(dp719
g25
(lp720
sg27
(lp721
sg29
(lp722
sg31
g32
sg33
S'31b5900c567c07f7bb49c9ecacaad338'
p723
sg35
Nsg36
(lp724
sg38
(lp725
sg40
(dp726
sg42
(lp727
sg44
S'/home/clem/XsedeTests/compile/gordon/apbs/bin/lib/python2.4/site-packages/ZSI/twisted/interfaces.py'
p728
sg46
Nsba(iFingerPrint.swirl
SwirlFile
p729
(dp730
g25
(lp731
sg27
(lp732
sg29
(lp733
sg31
g32
sg33
S'77cccc6b05130270be72fa7edc59c5be'
p734
sg35
Nsg36
(lp735
sg38
(lp736
sg40
(dp737
sg42
(lp738
sg44
S'/home/clem/XsedeTests/compile/gordon/apbs/bin/lib/python2.4/site-packages/ZSI/twisted/client.py'
p739
sg46
Nsba(iFingerPrint.swirl
SwirlFile
p740
(dp741
g25
(lp742
sg27
(lp743
sg29
(lp744
sg31
g32
sg33
S'a9f5063fcbf594e66c2b30c1abf0bb62'
p745
sg35
Nsg36
(lp746
sg38
(lp747
sg40
(dp748
sg42
(lp749
sg44
S'/home/clem/XsedeTests/compile/gordon/apbs/bin/lib/python2.4/site-packages/ZSI/twisted/WSresource.py'
p750
sg46
Nsba(iFingerPrint.swirl
SwirlFile
p751
(dp752
g25
(lp753
sg27
(lp754
sg29
(lp755
sg31
g32
sg33
S'b4e7bd9d879d2115ac5d4805db325f7b'
p756
sg35
Nsg36
(lp757
sg38
(lp758
sg40
(dp759
sg42
(lp760
sg44
S'/home/clem/XsedeTests/compile/gordon/apbs/bin/lib/python2.4/site-packages/ZSI/twisted/__init__.py'
p761
sg46
Nsba(iFingerPrint.swirl
SwirlFile
p762
(dp763
g25
(lp764
sg27
(lp765
sg29
(lp766
sg31
g32
sg33
S'2c159a9e5adc5d9f5ee61bba92c7a6d4'
p767
sg35
Nsg36
(lp768
sg38
(lp769
sg40
(dp770
sg42
(lp771
sg44
S'/home/clem/XsedeTests/compile/gordon/apbs/bin/lib/python2.4/site-packages/ZSI/twisted/reverse.py'
p772
sg46
Nsba(iFingerPrint.swirl
SwirlFile
p773
(dp774
g25
(lp775
sg27
(lp776
sg29
(lp777
sg31
g32
sg33
S'f6e7d5666754f4924f1c14fe116b8831'
p778
sg35
Nsg36
(lp779
sg38
(lp780
sg40
(dp781
sg42
(lp782
sg44
S'/home/clem/XsedeTests/compile/gordon/apbs/bin/lib/python2.4/site-packages/ZSI/twisted/WSsecurity.py'
p783
sg46
Nsba(iFingerPrint.swirl
SwirlFile
p784
(dp785
g25
(lp786
sg27
(lp787
sg29
(lp788
sg31
g32
sg33
S'17ffafb46c21aaf1dd64cf6d1ce96179'
p789
sg35
Nsg36
(lp790
sg38
(lp791
sg40
(dp792
sg42
(lp793
sg44
S'/home/clem/XsedeTests/compile/gordon/apbs/bin/lib/python2.4/site-packages/ZSI/twisted/wsgi.pyc'
p794
sg46
Nsba(iFingerPrint.swirl
SwirlFile
p795
(dp796
g25
(lp797
sg27
(lp798
sg29
(lp799
sg31
g32
sg33
S'1cdd115c42bc357591f7da1db3d713c7'
p800
sg35
Nsg36
(lp801
sg38
(lp802
sg40
(dp803
sg42
(lp804
sg44
S'/home/clem/XsedeTests/compile/gordon/apbs/bin/lib/python2.4/site-packages/ZSI/twisted/interfaces.pyc'
p805
sg46
Nsba(iFingerPrint.swirl
SwirlFile
p806
(dp807
g25
(lp808
sg27
(lp809
sg29
(lp810
sg31
g32
sg33
S'a2b6105c0ac971e8e840397bba17f945'
p811
sg35
Nsg36
(lp812
sg38
(lp813
sg40
(dp814
sg42
(lp815
sg44
S'/home/clem/XsedeTests/compile/gordon/apbs/bin/lib/python2.4/site-packages/ZSI/twisted/client.pyc'
p816
sg46
Nsba(iFingerPrint.swirl
SwirlFile
p817
(dp818
g25
(lp819
sg27
(lp820
sg29
(lp821
sg31
g32
sg33
S'dada0cbc2738ebd4b4fa302f03e92ff1'
p822
sg35
Nsg36
(lp823
sg38
(lp824
sg40
(dp825
sg42
(lp826
sg44
S'/home/clem/XsedeTests/compile/gordon/apbs/bin/lib/python2.4/site-packages/ZSI/twisted/WSresource.pyc'
p827
sg46
Nsba(iFingerPrint.swirl
SwirlFile
p828
(dp829
g25
(lp830
sg27
(lp831
sg29
(lp832
sg31
g32
sg33
S'399596143165338d3af1cecf67063a61'
p833
sg35
Nsg36
(lp834
sg38
(lp835
sg40
(dp836
sg42
(lp837
sg44
S'/home/clem/XsedeTests/compile/gordon/apbs/bin/lib/python2.4/site-packages/ZSI/twisted/__init__.pyc'
p838
sg46
Nsba(iFingerPrint.swirl
SwirlFile
p839
(dp840
g25
(lp841
sg27
(lp842
sg29
(lp843
sg31
g32
sg33
S'57e06426b39fceadbab5aa897d5fecce'
p844
sg35
Nsg36
(lp845
sg38
(lp846
sg40
(dp847
sg42
(lp848
sg44
S'/home/clem/XsedeTests/compile/gordon/apbs/bin/lib/python2.4/site-packages/ZSI/twisted/reverse.pyc'
p849
sg46
Nsba(iFingerPrint.swirl
SwirlFile
p850
(dp851
g25
(lp852
sg27
(lp853
sg29
(lp854
sg31
g32
sg33
S'd40d9fe7f1421db1b1f4f6e85c4867c3'
p855
sg35
Nsg36
(lp856
sg38
(lp857
sg40
(dp858
sg42
(lp859
sg44
S'/home/clem/XsedeTests/compile/gordon/apbs/bin/lib/python2.4/site-packages/ZSI/twisted/WSsecurity.pyc'
p860
sg46
Nsba(iFingerPrint.swirl
SwirlFile
p861
(dp862
g25
(lp863
sg27
(lp864
sg29
(lp865
sg31
g32
sg33
S'3a263e41532513f6714218d407bf01df'
p866
sg35
Nsg36
(lp867
sg38
(lp868
sg40
(dp869
sg42
(lp870
sg44
S'/home/clem/XsedeTests/compile/gordon/apbs/bin/lib/python2.4/site-packages/ZSI/__init__.py'
p871
sg46
Nsba(iFingerPrint.swirl
SwirlFile
p872
(dp873
g25
(lp874
sg27
(lp875
sg29
(lp876
sg31
g32
sg33
S'ba9449ec7a2e4c957630ead125bbf6f0'
p877
sg35
Nsg36
(lp878
sg38
(lp879
sg40
(dp880
sg42
(lp881
sg44
S'/home/clem/XsedeTests/compile/gordon/apbs/bin/lib/python2.4/site-packages/ZSI/parse.py'
p882
sg46
Nsba(iFingerPrint.swirl
SwirlFile
p883
(dp884
g25
(lp885
sg27
(lp886
sg29
(lp887
sg31
g32
sg33
S'da2c6a8eb759553aae2fe253d8880f71'
p888
sg35
Nsg36
(lp889
sg38
(lp890
sg40
(dp891
sg42
(lp892
sg44
S'/home/clem/XsedeTests/compile/gordon/apbs/bin/lib/python2.4/site-packages/ZSI/address.py'
p893
sg46
Nsba(iFingerPrint.swirl
SwirlFile
p894
(dp895
g25
(lp896
sg27
(lp897
sg29
(lp898
sg31
g32
sg33
S'90960930e18001a449723ddf74a50000'
p899
sg35
Nsg36
(lp900
sg38
(lp901
sg40
(dp902
sg42
(lp903
sg44
S'/home/clem/XsedeTests/compile/gordon/apbs/bin/lib/python2.4/site-packages/ZSI/version.py'
p904
sg46
Nsba(iFingerPrint.swirl
SwirlFile
p905
(dp906
g25
(lp907
sg27
(lp908
sg29
(lp909
sg31
g32
sg33
S'4faf612bb38954467053e422a89fb894'
p910
sg35
Nsg36
(lp911
sg38
(lp912
sg40
(dp913
sg42
(lp914
sg44
S'/home/clem/XsedeTests/compile/gordon/apbs/bin/lib/python2.4/site-packages/ZSI/resolvers.py'
p915
sg46
Nsba(iFingerPrint.swirl
SwirlFile
p916
(dp917
g25
(lp918
sg27
(lp919
sg29
(lp920
sg31
g32
sg33
S'0995d1a39d136b2c361152b726ae0de6'
p921
sg35
Nsg36
(lp922
sg38
(lp923
sg40
(dp924
sg42
(lp925
sg44
S'/home/clem/XsedeTests/compile/gordon/apbs/bin/lib/python2.4/site-packages/ZSI/writer.py'
p926
sg46
Nsba(iFingerPrint.swirl
SwirlFile
p927
(dp928
g25
(lp929
sg27
(lp930
sg29
(lp931
sg31
g32
sg33
S'45fc508f07ed72aab9ca35b22428a535'
p932
sg35
Nsg36
(lp933
sg38
(lp934
sg40
(dp935
sg42
(lp936
sg44
S'/home/clem/XsedeTests/compile/gordon/apbs/bin/lib/python2.4/site-packages/ZSI/fault.pyc'
p937
sg46
Nsba(iFingerPrint.swirl
SwirlFile
p938
(dp939
g25
(lp940
sg27
(lp941
sg29
(lp942
sg31
g32
sg33
S'4711a9dcf833c029a65e09e34972a65a'
p943
sg35
Nsg36
(lp944
sg38
(lp945
sg40
(dp946
sg42
(lp947
sg44
S'/home/clem/XsedeTests/compile/gordon/apbs/bin/lib/python2.4/site-packages/ZSI/TCapache.pyc'
p948
sg46
Nsba(iFingerPrint.swirl
SwirlFile
p949
(dp950
g25
(lp951
sg27
(lp952
sg29
(lp953
sg31
g32
sg33
S'a4edf246d46477cee6d52a670e3bd5f6'
p954
sg35
Nsg36
(lp955
sg38
(lp956
sg40
(dp957
sg42
(lp958
sg44
S'/home/clem/XsedeTests/compile/gordon/apbs/bin/lib/python2.4/site-packages/ZSI/digest_auth.pyc'
p959
sg46
Nsba(iFingerPrint.swirl
SwirlFile
p960
(dp961
g25
(lp962
sg27
(lp963
sg29
(lp964
sg31
g32
sg33
S'8f36bf60bc27bf8bd9786dea4b6b0188'
p965
sg35
Nsg36
(lp966
sg38
(lp967
sg40
(dp968
sg42
(lp969
sg44
S'/home/clem/XsedeTests/compile/gordon/apbs/bin/lib/python2.4/site-packages/ZSI/TCcompound.pyc'
p970
sg46
Nsba(iFingerPrint.swirl
SwirlFile
p971
(dp972
g25
(lp973
sg27
(lp974
sg29
(lp975
sg31
g32
sg33
S'ce8131abad5b0fd81e5a732dc62e580e'
p976
sg35
Nsg36
(lp977
sg38
(lp978
sg40
(dp979
sg42
(lp980
sg44
S'/home/clem/XsedeTests/compile/gordon/apbs/bin/lib/python2.4/site-packages/ZSI/typeinterpreter.pyc'
p981
sg46
Nsba(iFingerPrint.swirl
SwirlFile
p982
(dp983
g25
(lp984
sg27
(lp985
sg29
(lp986
sg31
g32
sg33
S'3961084b060599f659c7ec18114df084'
p987
sg35
Nsg36
(lp988
sg38
(lp989
sg40
(dp990
sg42
(lp991
sg44
S'/home/clem/XsedeTests/compile/gordon/apbs/bin/lib/python2.4/site-packages/ZSI/TC.pyc'
p992
sg46
Nsba(iFingerPrint.swirl
SwirlFile
p993
(dp994
g25
(lp995
sg27
(lp996
sg29
(lp997
sg31
g32
sg33
S'c3fbeef1085a197ba8edcfef6c5eef73'
p998
sg35
Nsg36
(lp999
sg38
(lp1000
sg40
(dp1001
sg42
(lp1002
sg44
S'/home/clem/XsedeTests/compile/gordon/apbs/bin/lib/python2.4/site-packages/ZSI/ServiceProxy.pyc'
p1003
sg46
Nsba(iFingerPrint.swirl
SwirlFile
p1004
(dp1005
g25
(lp1006
sg27
(lp1007
sg29
(lp1008
sg31
g32
sg33
S'd6f8c3956927a6f6f0d4ded0fd8a41d5'
p1009
sg35
Nsg36
(lp1010
sg38
(lp1011
sg40
(dp1012
sg42
(lp1013
sg44
S'/home/clem/XsedeTests/compile/gordon/apbs/bin/lib/python2.4/site-packages/ZSI/ServiceContainer.pyc'
p1014
sg46
Nsba(iFingerPrint.swirl
SwirlFile
p1015
(dp1016
g25
(lp1017
sg27
(lp1018
sg29
(lp1019
sg31
g32
sg33
S'8baf2cf9967be4532264674471bb0737'
p1020
sg35
Nsg36
(lp1021
sg38
(lp1022
sg40
(dp1023
sg42
(lp1024
sg44
S'/home/clem/XsedeTests/compile/gordon/apbs/bin/lib/python2.4/site-packages/ZSI/client.pyc'
p1025
sg46
Nsba(iFingerPrint.swirl
SwirlFile
p1026
(dp1027
g25
(lp1028
sg27
(lp1029
sg29
(lp1030
sg31
g32
sg33
S'8a9d434a01b1e273b98946c7960f3ed7'
p1031
sg35
Nsg36
(lp1032
sg38
(lp1033
sg40
(dp1034
sg42
(lp1035
sg44
S'/home/clem/XsedeTests/compile/gordon/apbs/bin/lib/python2.4/site-packages/ZSI/dispatch.pyc'
p1036
sg46
Nsba(iFingerPrint.swirl
SwirlFile
p1037
(dp1038
g25
(lp1039
sg27
(lp1040
sg29
(lp1041
sg31
g32
sg33
S'dab6598bb347d1178ac7020290ff7cb5'
p1042
sg35
Nsg36
(lp1043
sg38
(lp1044
sg40
(dp1045
sg42
(lp1046
sg44
S'/home/clem/XsedeTests/compile/gordon/apbs/bin/lib/python2.4/site-packages/ZSI/auth.pyc'
p1047
sg46
Nsba(iFingerPrint.swirl
SwirlFile
p1048
(dp1049
g25
(lp1050
sg27
(lp1051
sg29
(lp1052
sg31
g32
sg33
S'fd9c6d80f2487a8a2fa0e566431b01f4'
p1053
sg35
Nsg36
(lp1054
sg38
(lp1055
sg40
(dp1056
sg42
(lp1057
sg44
S'/home/clem/XsedeTests/compile/gordon/apbs/bin/lib/python2.4/site-packages/ZSI/TCtimes.pyc'
p1058
sg46
Nsba(iFingerPrint.swirl
SwirlFile
p1059
(dp1060
g25
(lp1061
sg27
(lp1062
sg29
(lp1063
sg31
g32
sg33
S'fce494e3ff4903704eb8a58852553d7b'
p1064
sg35
Nsg36
(lp1065
sg38
(lp1066
sg40
(dp1067
sg42
(lp1068
sg44
S'/home/clem/XsedeTests/compile/gordon/apbs/bin/lib/python2.4/site-packages/ZSI/TCnumbers.pyc'
p1069
sg46
Nsba(iFingerPrint.swirl
SwirlFile
p1070
(dp1071
g25
(lp1072
sg27
(lp1073
sg29
(lp1074
sg31
g32
sg33
S'2a188e22091558d31c3713e53167cff4'
p1075
sg35
Nsg36
(lp1076
sg38
(lp1077
sg40
(dp1078
sg42
(lp1079
sg44
S'/home/clem/XsedeTests/compile/gordon/apbs/bin/lib/python2.4/site-packages/ZSI/schema.pyc'
p1080
sg46
Nsba(iFingerPrint.swirl
SwirlFile
p1081
(dp1082
g25
(lp1083
sg27
(lp1084
sg29
(lp1085
sg31
g32
sg33
S'49979fa789dc5fcce9729dd918493080'
p1086
sg35
Nsg36
(lp1087
sg38
(lp1088
sg40
(dp1089
sg42
(lp1090
sg44
S'/home/clem/XsedeTests/compile/gordon/apbs/bin/lib/python2.4/site-packages/ZSI/__init__.pyc'
p1091
sg46
Nsba(iFingerPrint.swirl
SwirlFile
p1092
(dp1093
g25
(lp1094
sg27
(lp1095
sg29
(lp1096
sg31
g32
sg33
S'8eb25370d8c614ac99f868e8d1ba43a8'
p1097
sg35
Nsg36
(lp1098
sg38
(lp1099
sg40
(dp1100
sg42
(lp1101
sg44
S'/home/clem/XsedeTests/compile/gordon/apbs/bin/lib/python2.4/site-packages/ZSI/parse.pyc'
p1102
sg46
Nsba(iFingerPrint.swirl
SwirlFile
p1103
(dp1104
g25
(lp1105
sg27
(lp1106
sg29
(lp1107
sg31
g32
sg33
S'207cd3ddf63aa277797f067c38902223'
p1108
sg35
Nsg36
(lp1109
sg38
(lp1110
sg40
(dp1111
sg42
(lp1112
sg44
S'/home/clem/XsedeTests/compile/gordon/apbs/bin/lib/python2.4/site-packages/ZSI/address.pyc'
p1113
sg46
Nsba(iFingerPrint.swirl
SwirlFile
p1114
(dp1115
g25
(lp1116
sg27
(lp1117
sg29
(lp1118
sg31
g32
sg33
S'770e7f869b4630cb0e2d997aee12071e'
p1119
sg35
Nsg36
(lp1120
sg38
(lp1121
sg40
(dp1122
sg42
(lp1123
sg44
S'/home/clem/XsedeTests/compile/gordon/apbs/bin/lib/python2.4/site-packages/ZSI/version.pyc'
p1124
sg46
Nsba(iFingerPrint.swirl
SwirlFile
p1125
(dp1126
g25
(lp1127
sg27
(lp1128
sg29
(lp1129
sg31
g32
sg33
S'f882bbc6c5e76eb0a65a935c4bfe0460'
p1130
sg35
Nsg36
(lp1131
sg38
(lp1132
sg40
(dp1133
sg42
(lp1134
sg44
S'/home/clem/XsedeTests/compile/gordon/apbs/bin/lib/python2.4/site-packages/ZSI/resolvers.pyc'
p1135
sg46
Nsba(iFingerPrint.swirl
SwirlFile
p1136
(dp1137
g25
(lp1138
sg27
(lp1139
sg29
(lp1140
sg31
g32
sg33
S'f1181807bafccd0a58bad0aa762b8a53'
p1141
sg35
Nsg36
(lp1142
sg38
(lp1143
sg40
(dp1144
sg42
(lp1145
sg44
S'/home/clem/XsedeTests/compile/gordon/apbs/bin/lib/python2.4/site-packages/ZSI/writer.pyc'
p1146
sg46
Nsba(iFingerPrint.swirl
SwirlFile
p1147
(dp1148
g25
(lp1149
sg27
(lp1150
sg29
(lp1151
sg31
g32
sg33
S'92cbfb60883aed9d34ce446d7ac1ba2a'
p1152
sg35
Nsg36
(lp1153
sg38
(lp1154
sg40
(dp1155
sg42
(lp1156
sg44
S'/home/clem/XsedeTests/compile/gordon/apbs/bin/lib/python2.4/site-packages/ZSI/LBNLCopyright'
p1157
sg46
Nsba(iFingerPrint.swirl
SwirlFile
p1158
(dp1159
g25
(lp1160
sg27
(lp1161
sg29
(lp1162
sg31
g32
sg33
S'28dc657b2c131183d7c0c3d3d46afa08'
p1163
sg35
Nsg36
(lp1164
sg38
(lp1165
sg40
(dp1166
sg42
(lp1167
sg44
S'/home/clem/XsedeTests/compile/gordon/apbs/bin/lib/python2.4/site-packages/ZSI/.cvsignore'
p1168
sg46
Nsba(iFingerPrint.swirl
SwirlFile
p1169
(dp1170
g25
(lp1171
sg27
(lp1172
sg29
(lp1173
sg31
g32
sg33
S'c6fb8afa7280bdd5816c6500fc070822'
p1174
sg35
Nsg36
(lp1175
sg38
(lp1176
sg40
(dp1177
sg42
(lp1178
sg44
S'/home/clem/XsedeTests/compile/gordon/apbs/bin/lib/python2.4/site-packages/AppService_client.py'
p1179
sg46
Nsba(iFingerPrint.swirl
SwirlFile
p1180
(dp1181
g25
(lp1182
sg27
(lp1183
sg29
(lp1184
sg31
g32
sg33
S'b7ba0cae935bd6078615298cd79f0394'
p1185
sg35
Nsg36
(lp1186
sg38
(lp1187
sg40
(dp1188
sg42
(lp1189
sg44
S'/home/clem/XsedeTests/compile/gordon/apbs/bin/lib/python2.4/site-packages/AppService_server.py'
p1190
sg46
Nsba(iFingerPrint.swirl
SwirlFile
p1191
(dp1192
g25
(lp1193
sg27
(lp1194
sg29
(lp1195
sg31
g32
sg33
S'2ffcb4123f0b49cc9ab8db9738e7ba1f'
p1196
sg35
Nsg36
(lp1197
sg38
(lp1198
sg40
(dp1199
sg42
(lp1200
sg44
S'/home/clem/XsedeTests/compile/gordon/apbs/bin/lib/python2.4/site-packages/AppService_types.py'
p1201
sg46
Nsba(iFingerPrint.swirl
SwirlFile
p1202
(dp1203
g25
(lp1204
sg27
(lp1205
sg29
(lp1206
sg31
g32
sg33
S'61b22a12a062d03073a1d90259ef3b66'
p1207
sg35
Nsg36
(lp1208
sg38
(lp1209
sg40
(dp1210
sg42
(lp1211
sg44
S'/home/clem/XsedeTests/compile/gordon/apbs/bin/lib/libapbs.la'
p1212
sg46
Nsba(iFingerPrint.swirl
SwirlFile
p1213
(dp1214
g25
(lp1215
sg27
(lp1216
sg29
(lp1217
sg31
g32
sg33
S'463ba5576dabac7325b0eca1df2b9c9c'
p1218
sg35
Nsg36
(lp1219
sg38
(lp1220
sg40
(dp1221
sg42
(lp1222
sg44
S'/home/clem/XsedeTests/compile/gordon/apbs/bin/lib/libapbs.a'
p1223
sg46
Nsba(iFingerPrint.swirl
SwirlFile
p1224
(dp1225
g25
(lp1226
sg27
(lp1227
sg29
(lp1228
sg31
g32
sg33
S'c12617fadd62b11f828f30ddbf3a61af'
p1229
sg35
Nsg36
(lp1230
sg38
(lp1231
sg40
(dp1232
sg42
(lp1233
sg44
S'/home/clem/XsedeTests/compile/gordon/apbs/bin/lib/libapbsmainroutines.la'
p1234
sg46
Nsba(iFingerPrint.swirl
SwirlFile
p1235
(dp1236
g25
(lp1237
sg27
(lp1238
sg29
(lp1239
sg31
g32
sg33
S'5f229ae3538eb2426d6bade4af4601af'
p1240
sg35
Nsg36
(lp1241
sg38
(lp1242
sg40
(dp1243
sg42
(lp1244
sg44
S'/home/clem/XsedeTests/compile/gordon/apbs/bin/lib/libapbsmainroutines.a'
p1245
sg46
Nsba(iFingerPrint.swirl
SwirlFile
p1246
(dp1247
S'executable'
p1248
I01
sg25
(lp1249
sg27
(lp1250
sg29
(lp1251
sg31
S'ELF'
p1252
sg33
S'de0545cf33acc96e6c7093b7ac95198e'
p1253
sg35
Nsg36
(lp1254
(iFingerPrint.swirl
Dependency
p1255
(dp1256
S'hwcap'
p1257
NsS'major'
p1258
S'ld-linux-x86-64.so.2'
p1259
sg46
S'x86_64'
p1260
sS'minor'
p1261
S''
p1262
sg31
g1252
sba(iFingerPrint.swirl
Dependency
p1263
(dp1264
g1257
Nsg1258
S'libc.so.6'
p1265
sg46
g1260
sg1261
g1262
sg31
g1252
sba(iFingerPrint.swirl
Dependency
p1266
(dp1267
g1257
Nsg1258
S'libc.so.6'
p1268
sg46
g1260
sg1261
S'GLIBC_2.2.5'
p1269
sg31
g1252
sba(iFingerPrint.swirl
Dependency
p1270
(dp1271
g1257
Nsg1258
S'libc.so.6'
p1272
sg46
g1260
sg1261
S'GLIBC_2.3.2'
p1273
sg31
g1252
sba(iFingerPrint.swirl
Dependency
p1274
(dp1275
g1257
Nsg1258
S'libdl.so.2'
p1276
sg46
g1260
sg1261
g1262
sg31
g1252
sba(iFingerPrint.swirl
Dependency
p1277
(dp1278
g1257
Nsg1258
S'libgcc_s.so.1'
p1279
sg46
g1260
sg1261
g1262
sg31
g1252
sba(iFingerPrint.swirl
Dependency
p1280
(dp1281
g1257
Nsg1258
S'libmpich.so.3'
p1282
sg46
g1260
sg1261
g1262
sg31
g1252
sba(iFingerPrint.swirl
Dependency
p1283
(dp1284
g1257
Nsg1258
S'libmpl.so.1'
p1285
sg46
g1260
sg1261
g1262
sg31
g1252
sba(iFingerPrint.swirl
Dependency
p1286
(dp1287
g1257
Nsg1258
S'libm.so.6'
p1288
sg46
g1260
sg1261
g1262
sg31
g1252
sba(iFingerPrint.swirl
Dependency
p1289
(dp1290
g1257
Nsg1258
S'libpthread.so.0'
p1291
sg46
g1260
sg1261
g1262
sg31
g1252
sba(iFingerPrint.swirl
Dependency
p1292
(dp1293
g1257
Nsg1258
S'libpthread.so.0'
p1294
sg46
g1260
sg1261
S'GLIBC_2.2.5'
p1295
sg31
g1252
sba(iFingerPrint.swirl
Dependency
p1296
(dp1297
g1257
Nsg1258
S'libpthread.so.0'
p1298
sg46
g1260
sg1261
S'GLIBC_2.3.2'
p1299
sg31
g1252
sba(iFingerPrint.swirl
Dependency
p1300
(dp1301
g1257
Nsg1258
S'librt.so.1'
p1302
sg46
g1260
sg1261
g1262
sg31
g1252
sba(iFingerPrint.swirl
Dependency
p1303
(dp1304
g1257
Nsg1258
S'librt.so.1'
p1305
sg46
g1260
sg1261
S'GLIBC_2.2.5'
p1306
sg31
g1252
sbasg38
(lp1307
sg40
(dp1308
sg42
(lp1309
S'/opt/mvapich2/intel/ib/lib'
p1310
asg44
S'/home/clem/XsedeTests/compile/gordon/apbs/bin/bin/apbs'
p1311
sg46
g1260
sba(iFingerPrint.swirl
SwirlFile
p1312
(dp1313
g25
(lp1314
sg27
(lp1315
sg29
(lp1316
sg31
g32
sg33
S'f19438569a7a1ebda00b1936db0ef34d'
p1317
sg35
Nsg36
(lp1318
sg38
(lp1319
sg40
(dp1320
sg42
(lp1321
sg44
S'/home/clem/XsedeTests/compile/gordon/apbs/bin/bin/ApbsClient.py'
p1322
sg46
Nsba(iFingerPrint.swirl
SwirlFile
p1323
(dp1324
g25
(lp1325
sg27
(lp1326
sg29
(lp1327
sg31
g32
sg33
S'bf15c256f3c18c005ed00742eb283639'
p1328
sg35
Nsg36
(lp1329
sg38
(lp1330
sg40
(dp1331
sg42
(lp1332
sg44
S'/home/clem/XsedeTests/compile/gordon/apbs/bin/include/apbs/apbs.h'
p1333
sg46
Nsba(iFingerPrint.swirl
SwirlFile
p1334
(dp1335
g25
(lp1336
sg27
(lp1337
sg29
(lp1338
sg31
g32
sg33
S'999aefa33a3c54fe7db3746df14d94ae'
p1339
sg35
Nsg36
(lp1340
sg38
(lp1341
sg40
(dp1342
sg42
(lp1343
sg44
S'/home/clem/XsedeTests/compile/gordon/apbs/bin/include/apbs/apolparm.h'
p1344
sg46
Nsba(iFingerPrint.swirl
SwirlFile
p1345
(dp1346
g25
(lp1347
sg27
(lp1348
sg29
(lp1349
sg31
g32
sg33
S'c1d8699d7fcbfcad633d6f03315b72a4'
p1350
sg35
Nsg36
(lp1351
sg38
(lp1352
sg40
(dp1353
sg42
(lp1354
sg44
S'/home/clem/XsedeTests/compile/gordon/apbs/bin/include/apbs/femparm.h'
p1355
sg46
Nsba(iFingerPrint.swirl
SwirlFile
p1356
(dp1357
g25
(lp1358
sg27
(lp1359
sg29
(lp1360
sg31
g32
sg33
S'40556e4858049be9d18c56305a72af9c'
p1361
sg35
Nsg36
(lp1362
sg38
(lp1363
sg40
(dp1364
sg42
(lp1365
sg44
S'/home/clem/XsedeTests/compile/gordon/apbs/bin/include/apbs/mgparm.h'
p1366
sg46
Nsba(iFingerPrint.swirl
SwirlFile
p1367
(dp1368
g25
(lp1369
sg27
(lp1370
sg29
(lp1371
sg31
g32
sg33
S'0bf8a16c1ff3340032a5b9c452e9cae0'
p1372
sg35
Nsg36
(lp1373
sg38
(lp1374
sg40
(dp1375
sg42
(lp1376
sg44
S'/home/clem/XsedeTests/compile/gordon/apbs/bin/include/apbs/nosh.h'
p1377
sg46
Nsba(iFingerPrint.swirl
SwirlFile
p1378
(dp1379
g25
(lp1380
sg27
(lp1381
sg29
(lp1382
sg31
g32
sg33
S'abb313b25daf708f860e931d58fac241'
p1383
sg35
Nsg36
(lp1384
sg38
(lp1385
sg40
(dp1386
sg42
(lp1387
sg44
S'/home/clem/XsedeTests/compile/gordon/apbs/bin/include/apbs/pbeparm.h'
p1388
sg46
Nsba(iFingerPrint.swirl
SwirlFile
p1389
(dp1390
g25
(lp1391
sg27
(lp1392
sg29
(lp1393
sg31
g32
sg33
S'14ba25aa123d788115bf13769f355e89'
p1394
sg35
Nsg36
(lp1395
sg38
(lp1396
sg40
(dp1397
sg42
(lp1398
sg44
S'/home/clem/XsedeTests/compile/gordon/apbs/bin/include/apbs/vacc.h'
p1399
sg46
Nsba(iFingerPrint.swirl
SwirlFile
p1400
(dp1401
g25
(lp1402
sg27
(lp1403
sg29
(lp1404
sg31
g32
sg33
S'6a76f42b7838dfc190481789fdf0a0fc'
p1405
sg35
Nsg36
(lp1406
sg38
(lp1407
sg40
(dp1408
sg42
(lp1409
sg44
S'/home/clem/XsedeTests/compile/gordon/apbs/bin/include/apbs/valist.h'
p1410
sg46
Nsba(iFingerPrint.swirl
SwirlFile
p1411
(dp1412
g25
(lp1413
sg27
(lp1414
sg29
(lp1415
sg31
g32
sg33
S'b27c64430410e8b98d7f6b584e7bbdc5'
p1416
sg35
Nsg36
(lp1417
sg38
(lp1418
sg40
(dp1419
sg42
(lp1420
sg44
S'/home/clem/XsedeTests/compile/gordon/apbs/bin/include/apbs/vatom.h'
p1421
sg46
Nsba(iFingerPrint.swirl
SwirlFile
p1422
(dp1423
g25
(lp1424
sg27
(lp1425
sg29
(lp1426
sg31
g32
sg33
S'b0ea811e01004458aa234e8da8f84794'
p1427
sg35
Nsg36
(lp1428
sg38
(lp1429
sg40
(dp1430
sg42
(lp1431
sg44
S'/home/clem/XsedeTests/compile/gordon/apbs/bin/include/apbs/vcap.h'
p1432
sg46
Nsba(iFingerPrint.swirl
SwirlFile
p1433
(dp1434
g25
(lp1435
sg27
(lp1436
sg29
(lp1437
sg31
g32
sg33
S'98dba215a411e03d8dc74c28cdf4cd09'
p1438
sg35
Nsg36
(lp1439
sg38
(lp1440
sg40
(dp1441
sg42
(lp1442
sg44
S'/home/clem/XsedeTests/compile/gordon/apbs/bin/include/apbs/vgreen.h'
p1443
sg46
Nsba(iFingerPrint.swirl
SwirlFile
p1444
(dp1445
g25
(lp1446
sg27
(lp1447
sg29
(lp1448
sg31
g32
sg33
S'9a07b1c0c7118124aa98dac8126df00c'
p1449
sg35
Nsg36
(lp1450
sg38
(lp1451
sg40
(dp1452
sg42
(lp1453
sg44
S'/home/clem/XsedeTests/compile/gordon/apbs/bin/include/apbs/vhal.h'
p1454
sg46
Nsba(iFingerPrint.swirl
SwirlFile
p1455
(dp1456
g25
(lp1457
sg27
(lp1458
sg29
(lp1459
sg31
g32
sg33
S'1760a7c33b4cb8e5d7a80ec065e2aadd'
p1460
sg35
Nsg36
(lp1461
sg38
(lp1462
sg40
(dp1463
sg42
(lp1464
sg44
S'/home/clem/XsedeTests/compile/gordon/apbs/bin/include/apbs/vpbe.h'
p1465
sg46
Nsba(iFingerPrint.swirl
SwirlFile
p1466
(dp1467
g25
(lp1468
sg27
(lp1469
sg29
(lp1470
sg31
g32
sg33
S'90e07c9dd6584501b70e4a79406fa4ae'
p1471
sg35
Nsg36
(lp1472
sg38
(lp1473
sg40
(dp1474
sg42
(lp1475
sg44
S'/home/clem/XsedeTests/compile/gordon/apbs/bin/include/apbs/vunit.h'
p1476
sg46
Nsba(iFingerPrint.swirl
SwirlFile
p1477
(dp1478
g25
(lp1479
sg27
(lp1480
sg29
(lp1481
sg31
g32
sg33
S'f13d63ed60e3f95bbeba0d7ad8b90a5c'
p1482
sg35
Nsg36
(lp1483
sg38
(lp1484
sg40
(dp1485
sg42
(lp1486
sg44
S'/home/clem/XsedeTests/compile/gordon/apbs/bin/include/apbs/vstring.h'
p1487
sg46
Nsba(iFingerPrint.swirl
SwirlFile
p1488
(dp1489
g25
(lp1490
sg27
(lp1491
sg29
(lp1492
sg31
g32
sg33
S'9ff49fe7b604e2a42a6c32607ed5c2af'
p1493
sg35
Nsg36
(lp1494
sg38
(lp1495
sg40
(dp1496
sg42
(lp1497
sg44
S'/home/clem/XsedeTests/compile/gordon/apbs/bin/include/apbs/vparam.h'
p1498
sg46
Nsba(iFingerPrint.swirl
SwirlFile
p1499
(dp1500
g25
(lp1501
sg27
(lp1502
sg29
(lp1503
sg31
g32
sg33
S'f32386d26deb2dbf678d5a2a2870a80d'
p1504
sg35
Nsg36
(lp1505
sg38
(lp1506
sg40
(dp1507
sg42
(lp1508
sg44
S'/home/clem/XsedeTests/compile/gordon/apbs/bin/include/apbs/vclist.h'
p1509
sg46
Nsba(iFingerPrint.swirl
SwirlFile
p1510
(dp1511
g25
(lp1512
sg27
(lp1513
sg29
(lp1514
sg31
g32
sg33
S'2778d681ac41484eac734af869858e6f'
p1515
sg35
Nsg36
(lp1516
sg38
(lp1517
sg40
(dp1518
sg42
(lp1519
sg44
S'/home/clem/XsedeTests/compile/gordon/apbs/bin/include/apbs/vmatrix.h'
p1520
sg46
Nsba(iFingerPrint.swirl
SwirlFile
p1521
(dp1522
g25
(lp1523
sg27
(lp1524
sg29
(lp1525
sg31
g32
sg33
S'19574baac4e3f14853630dc89edcf1bf'
p1526
sg35
Nsg36
(lp1527
sg38
(lp1528
sg40
(dp1529
sg42
(lp1530
sg44
S'/home/clem/XsedeTests/compile/gordon/apbs/bin/include/apbs/buildAd.h'
p1531
sg46
Nsba(iFingerPrint.swirl
SwirlFile
p1532
(dp1533
g25
(lp1534
sg27
(lp1535
sg29
(lp1536
sg31
g32
sg33
S'e54aa365b8297dbe5508b38e4ea5900b'
p1537
sg35
Nsg36
(lp1538
sg38
(lp1539
sg40
(dp1540
sg42
(lp1541
sg44
S'/home/clem/XsedeTests/compile/gordon/apbs/bin/include/apbs/buildBd.h'
p1542
sg46
Nsba(iFingerPrint.swirl
SwirlFile
p1543
(dp1544
g25
(lp1545
sg27
(lp1546
sg29
(lp1547
sg31
g32
sg33
S'124782400249f50ae312f87153c7f010'
p1548
sg35
Nsg36
(lp1549
sg38
(lp1550
sg40
(dp1551
sg42
(lp1552
sg44
S'/home/clem/XsedeTests/compile/gordon/apbs/bin/include/apbs/buildGd.h'
p1553
sg46
Nsba(iFingerPrint.swirl
SwirlFile
p1554
(dp1555
g25
(lp1556
sg27
(lp1557
sg29
(lp1558
sg31
g32
sg33
S'aa9f8d5688b19e1b1ac200d00943562d'
p1559
sg35
Nsg36
(lp1560
sg38
(lp1561
sg40
(dp1562
sg42
(lp1563
sg44
S'/home/clem/XsedeTests/compile/gordon/apbs/bin/include/apbs/buildPd.h'
p1564
sg46
Nsba(iFingerPrint.swirl
SwirlFile
p1565
(dp1566
g25
(lp1567
sg27
(lp1568
sg29
(lp1569
sg31
g32
sg33
S'f6a3e433c11923b7a8570a409a5fcaa1'
p1570
sg35
Nsg36
(lp1571
sg38
(lp1572
sg40
(dp1573
sg42
(lp1574
sg44
S'/home/clem/XsedeTests/compile/gordon/apbs/bin/include/apbs/cgd.h'
p1575
sg46
Nsba(iFingerPrint.swirl
SwirlFile
p1576
(dp1577
g25
(lp1578
sg27
(lp1579
sg29
(lp1580
sg31
g32
sg33
S'6b0132733b94757e4943b3617fa71b54'
p1581
sg35
Nsg36
(lp1582
sg38
(lp1583
sg40
(dp1584
sg42
(lp1585
sg44
S'/home/clem/XsedeTests/compile/gordon/apbs/bin/include/apbs/gsd.h'
p1586
sg46
Nsba(iFingerPrint.swirl
SwirlFile
p1587
(dp1588
g25
(lp1589
sg27
(lp1590
sg29
(lp1591
sg31
g32
sg33
S'92c88eadb8b47933086d423471106f9b'
p1592
sg35
Nsg36
(lp1593
sg38
(lp1594
sg40
(dp1595
sg42
(lp1596
sg44
S'/home/clem/XsedeTests/compile/gordon/apbs/bin/include/apbs/matvecd.h'
p1597
sg46
Nsba(iFingerPrint.swirl
SwirlFile
p1598
(dp1599
g25
(lp1600
sg27
(lp1601
sg29
(lp1602
sg31
g32
sg33
S'0da5f16dffa42b172839e08b65900536'
p1603
sg35
Nsg36
(lp1604
sg38
(lp1605
sg40
(dp1606
sg42
(lp1607
sg44
S'/home/clem/XsedeTests/compile/gordon/apbs/bin/include/apbs/mgcsd.h'
p1608
sg46
Nsba(iFingerPrint.swirl
SwirlFile
p1609
(dp1610
g25
(lp1611
sg27
(lp1612
sg29
(lp1613
sg31
g32
sg33
S'95f72ab0fa67ee71042bc74f6944c026'
p1614
sg35
Nsg36
(lp1615
sg38
(lp1616
sg40
(dp1617
sg42
(lp1618
sg44
S'/home/clem/XsedeTests/compile/gordon/apbs/bin/include/apbs/mgdrvd.h'
p1619
sg46
Nsba(iFingerPrint.swirl
SwirlFile
p1620
(dp1621
g25
(lp1622
sg27
(lp1623
sg29
(lp1624
sg31
g32
sg33
S'a7cda6b6e7f75b7f85d5412766cff540'
p1625
sg35
Nsg36
(lp1626
sg38
(lp1627
sg40
(dp1628
sg42
(lp1629
sg44
S'/home/clem/XsedeTests/compile/gordon/apbs/bin/include/apbs/mgfasd.h'
p1630
sg46
Nsba(iFingerPrint.swirl
SwirlFile
p1631
(dp1632
g25
(lp1633
sg27
(lp1634
sg29
(lp1635
sg31
g32
sg33
S'617ecbdab5c9692d0d3c682f9676faa8'
p1636
sg35
Nsg36
(lp1637
sg38
(lp1638
sg40
(dp1639
sg42
(lp1640
sg44
S'/home/clem/XsedeTests/compile/gordon/apbs/bin/include/apbs/mgsubd.h'
p1641
sg46
Nsba(iFingerPrint.swirl
SwirlFile
p1642
(dp1643
g25
(lp1644
sg27
(lp1645
sg29
(lp1646
sg31
g32
sg33
S'b617ca9c7ac8685eb6977e83aeec7c20'
p1647
sg35
Nsg36
(lp1648
sg38
(lp1649
sg40
(dp1650
sg42
(lp1651
sg44
S'/home/clem/XsedeTests/compile/gordon/apbs/bin/include/apbs/mikpckd.h'
p1652
sg46
Nsba(iFingerPrint.swirl
SwirlFile
p1653
(dp1654
g25
(lp1655
sg27
(lp1656
sg29
(lp1657
sg31
g32
sg33
S'57ca7eba782c3bc7988c546e3e0bcec6'
p1658
sg35
Nsg36
(lp1659
sg38
(lp1660
sg40
(dp1661
sg42
(lp1662
sg44
S'/home/clem/XsedeTests/compile/gordon/apbs/bin/include/apbs/mlinpckd.h'
p1663
sg46
Nsba(iFingerPrint.swirl
SwirlFile
p1664
(dp1665
g25
(lp1666
sg27
(lp1667
sg29
(lp1668
sg31
g32
sg33
S'58b7978a22ec927ac02cd62e7715cc2d'
p1669
sg35
Nsg36
(lp1670
sg38
(lp1671
sg40
(dp1672
sg42
(lp1673
sg44
S'/home/clem/XsedeTests/compile/gordon/apbs/bin/include/apbs/mypdec.h'
p1674
sg46
Nsba(iFingerPrint.swirl
SwirlFile
p1675
(dp1676
g25
(lp1677
sg27
(lp1678
sg29
(lp1679
sg31
g32
sg33
S'a44584f7c112ab50f38315cf05933844'
p1680
sg35
Nsg36
(lp1681
sg38
(lp1682
sg40
(dp1683
sg42
(lp1684
sg44
S'/home/clem/XsedeTests/compile/gordon/apbs/bin/include/apbs/newdrvd.h'
p1685
sg46
Nsba(iFingerPrint.swirl
SwirlFile
p1686
(dp1687
g25
(lp1688
sg27
(lp1689
sg29
(lp1690
sg31
g32
sg33
S'779f1b0de822dc0ecb37029aa975bc82'
p1691
sg35
Nsg36
(lp1692
sg38
(lp1693
sg40
(dp1694
sg42
(lp1695
sg44
S'/home/clem/XsedeTests/compile/gordon/apbs/bin/include/apbs/newtond.h'
p1696
sg46
Nsba(iFingerPrint.swirl
SwirlFile
p1697
(dp1698
g25
(lp1699
sg27
(lp1700
sg29
(lp1701
sg31
g32
sg33
S'c277bacdd1ed9ef7a23ea9770220bab8'
p1702
sg35
Nsg36
(lp1703
sg38
(lp1704
sg40
(dp1705
sg42
(lp1706
sg44
S'/home/clem/XsedeTests/compile/gordon/apbs/bin/include/apbs/powerd.h'
p1707
sg46
Nsba(iFingerPrint.swirl
SwirlFile
p1708
(dp1709
g25
(lp1710
sg27
(lp1711
sg29
(lp1712
sg31
g32
sg33
S'0abcf1f9645f82e839140da5c547d64f'
p1713
sg35
Nsg36
(lp1714
sg38
(lp1715
sg40
(dp1716
sg42
(lp1717
sg44
S'/home/clem/XsedeTests/compile/gordon/apbs/bin/include/apbs/smoothd.h'
p1718
sg46
Nsba(iFingerPrint.swirl
SwirlFile
p1719
(dp1720
g25
(lp1721
sg27
(lp1722
sg29
(lp1723
sg31
g32
sg33
S'5d10e045698756dfe2896dc956e90c3c'
p1724
sg35
Nsg36
(lp1725
sg38
(lp1726
sg40
(dp1727
sg42
(lp1728
sg44
S'/home/clem/XsedeTests/compile/gordon/apbs/bin/include/apbs/vpmg.h'
p1729
sg46
Nsba(iFingerPrint.swirl
SwirlFile
p1730
(dp1731
g25
(lp1732
sg27
(lp1733
sg29
(lp1734
sg31
g32
sg33
S'169632e58ae2939436ad756706a0a24c'
p1735
sg35
Nsg36
(lp1736
sg38
(lp1737
sg40
(dp1738
sg42
(lp1739
sg44
S'/home/clem/XsedeTests/compile/gordon/apbs/bin/include/apbs/vpmgp.h'
p1740
sg46
Nsba(iFingerPrint.swirl
SwirlFile
p1741
(dp1742
g25
(lp1743
sg27
(lp1744
sg29
(lp1745
sg31
g32
sg33
S'58cf8d10fc929473edb7591cfbd6ec6f'
p1746
sg35
Nsg36
(lp1747
sg38
(lp1748
sg40
(dp1749
sg42
(lp1750
sg44
S'/home/clem/XsedeTests/compile/gordon/apbs/bin/include/apbs/vgrid.h'
p1751
sg46
Nsba(iFingerPrint.swirl
SwirlFile
p1752
(dp1753
g25
(lp1754
sg27
(lp1755
sg29
(lp1756
sg31
g32
sg33
S'3f607580e18ee5970de92330699e0563'
p1757
sg35
Nsg36
(lp1758
sg38
(lp1759
sg40
(dp1760
sg42
(lp1761
sg44
S'/home/clem/XsedeTests/compile/gordon/apbs/bin/include/apbs/vmgrid.h'
p1762
sg46
Nsba(iFingerPrint.swirl
SwirlFile
p1763
(dp1764
g25
(lp1765
sg27
(lp1766
sg29
(lp1767
sg31
g32
sg33
S'1be62bbbffaf894d02df6e876cf9f64a'
p1768
sg35
Nsg36
(lp1769
sg38
(lp1770
sg40
(dp1771
sg42
(lp1772
sg44
S'/home/clem/XsedeTests/compile/gordon/apbs/bin/include/apbs/vopot.h'
p1773
sg46
Nsba(iFingerPrint.swirl
SwirlFile
p1774
(dp1775
g25
(lp1776
sg27
(lp1777
sg29
(lp1778
sg31
g32
sg33
S'2e06d76e9ee156e0b28691f180690dc6'
p1779
sg35
Nsg36
(lp1780
sg38
(lp1781
sg40
(dp1782
sg42
(lp1783
sg44
S'/home/clem/XsedeTests/compile/gordon/apbs/bin/include/apbs/vfetk.h'
p1784
sg46
Nsba(iFingerPrint.swirl
SwirlFile
p1785
(dp1786
g25
(lp1787
sg27
(lp1788
sg29
(lp1789
sg31
g32
sg33
S'a64591e74dbb4ecf289c6a1cc79a9c01'
p1790
sg35
Nsg36
(lp1791
sg38
(lp1792
sg40
(dp1793
sg42
(lp1794
sg44
S'/home/clem/XsedeTests/compile/gordon/apbs/bin/include/apbs/vcsm.h'
p1795
sg46
Nsba(iFingerPrint.swirl
SwirlFile
p1796
(dp1797
g25
(lp1798
sg27
(lp1799
sg29
(lp1800
sg31
g32
sg33
S'56f42fa38a1535eadd91dae7a51234fc'
p1801
sg35
Nsg36
(lp1802
sg38
(lp1803
sg40
(dp1804
sg42
(lp1805
sg44
S'/home/clem/XsedeTests/compile/gordon/apbs/bin/include/apbs/vpee.h'
p1806
sg46
Nsba(iFingerPrint.swirl
SwirlFile
p1807
(dp1808
g25
(lp1809
sg27
(lp1810
sg29
(lp1811
sg31
g32
sg33
S'9e79f360d6ec8c225108edcef0d158e3'
p1812
sg35
Nsg36
(lp1813
sg38
(lp1814
sg40
(dp1815
sg42
(lp1816
sg44
S'/home/clem/XsedeTests/compile/gordon/apbs/bin/include/apbs/apbscfg.h'
p1817
sg46
Nsba(iFingerPrint.swirl
SwirlFile
p1818
(dp1819
g25
(lp1820
sg27
(lp1821
sg29
(lp1822
sg31
g32
sg33
S'6b995605a43f93eba357871eadee75d8'
p1823
sg35
Nsg36
(lp1824
sg38
(lp1825
sg40
(dp1826
sg42
(lp1827
sg44
S'/home/clem/XsedeTests/compile/gordon/apbs/bin/include/apbs/routines.h'
p1828
sg46
NsbasS'swirlFiles'
p1829
(lp1830
g23
ag47
ag58
ag69
ag80
ag91
ag102
ag113
ag124
ag135
ag146
ag157
ag168
ag179
ag190
ag201
ag212
ag223
ag234
ag245
ag256
ag267
ag278
ag289
ag300
ag311
ag322
ag333
ag344
ag355
ag366
ag377
ag388
ag399
ag410
ag421
ag432
ag443
ag454
ag465
ag476
ag487
ag498
ag509
ag520
ag531
ag542
ag553
ag564
ag575
ag586
ag597
ag608
ag619
ag630
ag641
ag652
ag663
ag674
ag685
ag696
ag707
ag718
ag729
ag740
ag751
ag762
ag773
ag784
ag795
ag806
ag817
ag828
ag839
ag850
ag861
ag872
ag883
ag894
ag905
ag916
ag927
ag938
ag949
ag960
ag971
ag982
ag993
ag1004
ag1015
ag1026
ag1037
ag1048
ag1059
ag1070
ag1081
ag1092
ag1103
ag1114
ag1125
ag1136
ag1147
ag1158
ag1169
ag1180
ag1191
ag1202
ag1213
ag1224
ag1235
ag1246
a(iFingerPrint.swirl
SwirlFile
p1831
(dp1832
g1248
I00
sg25
(lp1833
sg27
(lp1834
S'/lib64/ld-linux-x86-64.so.2'
p1835
asg29
(lp1836
sg31
g1252
sg33
S'e6d5eba2fedd41492b902aaa092c50a2'
p1837
sg35
S'glibc-2.5-58.el5_6.4'
p1838
sg36
(lp1839
sg38
(lp1840
(iFingerPrint.swirl
Dependency
p1841
(dp1842
g1257
Nsg1258
S'ld-linux-x86-64.so.2'
p1843
sg46
g1260
sg1261
g1262
sg31
g1252
sba(iFingerPrint.swirl
Dependency
p1844
(dp1845
g1257
Nsg1258
S'ld-linux-x86-64.so.2'
p1846
sg46
g1260
sg1261
S'GLIBC_2.2.5'
p1847
sg31
g1252
sba(iFingerPrint.swirl
Dependency
p1848
(dp1849
g1257
Nsg1258
S'ld-linux-x86-64.so.2'
p1850
sg46
g1260
sg1261
S'GLIBC_2.3'
p1851
sg31
g1252
sba(iFingerPrint.swirl
Dependency
p1852
(dp1853
g1257
Nsg1258
S'ld-linux-x86-64.so.2'
p1854
sg46
g1260
sg1261
S'GLIBC_2.4'
p1855
sg31
g1252
sba(iFingerPrint.swirl
Dependency
p1856
(dp1857
g1257
Nsg1258
S'ld-linux-x86-64.so.2'
p1858
sg46
g1260
sg1261
S'GLIBC_PRIVATE'
p1859
sg31
g1252
sbasg40
(dp1860
sg42
(lp1861
g1262
asg44
S'/lib64/ld-2.5.so'
p1862
sg46
g1260
sba(iFingerPrint.swirl
SwirlFile
p1863
(dp1864
g1248
I00
sg25
(lp1865
sg27
(lp1866
S'/lib64/libc.so.6'
p1867
asg29
(lp1868
sg31
g1252
sg33
S'c44374b32d0cb75717ceae9406d75461'
p1869
sg35
S'glibc-2.5-58.el5_6.4'
p1870
sg36
(lp1871
(iFingerPrint.swirl
Dependency
p1872
(dp1873
g1257
Nsg1258
S'ld-linux-x86-64.so.2'
p1874
sg46
g1260
sg1261
g1262
sg31
g1252
sba(iFingerPrint.swirl
Dependency
p1875
(dp1876
g1257
Nsg1258
S'ld-linux-x86-64.so.2'
p1877
sg46
g1260
sg1261
S'GLIBC_2.3'
p1878
sg31
g1252
sba(iFingerPrint.swirl
Dependency
p1879
(dp1880
g1257
Nsg1258
S'ld-linux-x86-64.so.2'
p1881
sg46
g1260
sg1261
S'GLIBC_PRIVATE'
p1882
sg31
g1252
sbasg38
(lp1883
(iFingerPrint.swirl
Dependency
p1884
(dp1885
g1257
Nsg1258
S'libc.so.6'
p1886
sg46
g1260
sg1261
g1262
sg31
g1252
sba(iFingerPrint.swirl
Dependency
p1887
(dp1888
g1257
Nsg1258
S'libc.so.6'
p1889
sg46
g1260
sg1261
S'GLIBC_2.2.5'
p1890
sg31
g1252
sba(iFingerPrint.swirl
Dependency
p1891
(dp1892
g1257
Nsg1258
S'libc.so.6'
p1893
sg46
g1260
sg1261
S'GLIBC_2.2.6'
p1894
sg31
g1252
sba(iFingerPrint.swirl
Dependency
p1895
(dp1896
g1257
Nsg1258
S'libc.so.6'
p1897
sg46
g1260
sg1261
S'GLIBC_2.3.2'
p1898
sg31
g1252
sba(iFingerPrint.swirl
Dependency
p1899
(dp1900
g1257
Nsg1258
S'libc.so.6'
p1901
sg46
g1260
sg1261
S'GLIBC_2.3.3'
p1902
sg31
g1252
sba(iFingerPrint.swirl
Dependency
p1903
(dp1904
g1257
Nsg1258
S'libc.so.6'
p1905
sg46
g1260
sg1261
S'GLIBC_2.3.4'
p1906
sg31
g1252
sba(iFingerPrint.swirl
Dependency
p1907
(dp1908
g1257
Nsg1258
S'libc.so.6'
p1909
sg46
g1260
sg1261
S'GLIBC_2.3'
p1910
sg31
g1252
sba(iFingerPrint.swirl
Dependency
p1911
(dp1912
g1257
Nsg1258
S'libc.so.6'
p1913
sg46
g1260
sg1261
S'GLIBC_2.4'
p1914
sg31
g1252
sba(iFingerPrint.swirl
Dependency
p1915
(dp1916
g1257
Nsg1258
S'libc.so.6'
p1917
sg46
g1260
sg1261
S'GLIBC_2.5'
p1918
sg31
g1252
sba(iFingerPrint.swirl
Dependency
p1919
(dp1920
g1257
Nsg1258
S'libc.so.6'
p1921
sg46
g1260
sg1261
S'GLIBC_PRIVATE'
p1922
sg31
g1252
sbasg40
(dp1923
sg42
(lp1924
g1262
asg44
S'/lib64/libc-2.5.so'
p1925
sg46
g1260
sba(iFingerPrint.swirl
SwirlFile
p1926
(dp1927
g1248
I00
sg25
(lp1928
sg27
(lp1929
S'/lib64/libdl.so.2'
p1930
asg29
(lp1931
sg31
g1252
sg33
S'87fde6c2e5580be87586ee8e74326f65'
p1932
sg35
S'glibc-2.5-58.el5_6.4'
p1933
sg36
(lp1934
(iFingerPrint.swirl
Dependency
p1935
(dp1936
g1257
Nsg1258
S'ld-linux-x86-64.so.2'
p1937
sg46
g1260
sg1261
g1262
sg31
g1252
sba(iFingerPrint.swirl
Dependency
p1938
(dp1939
g1257
Nsg1258
S'ld-linux-x86-64.so.2'
p1940
sg46
g1260
sg1261
S'GLIBC_PRIVATE'
p1941
sg31
g1252
sba(iFingerPrint.swirl
Dependency
p1942
(dp1943
g1257
Nsg1258
S'libc.so.6'
p1944
sg46
g1260
sg1261
g1262
sg31
g1252
sba(iFingerPrint.swirl
Dependency
p1945
(dp1946
g1257
Nsg1258
S'libc.so.6'
p1947
sg46
g1260
sg1261
S'GLIBC_2.2.5'
p1948
sg31
g1252
sba(iFingerPrint.swirl
Dependency
p1949
(dp1950
g1257
Nsg1258
S'libc.so.6'
p1951
sg46
g1260
sg1261
S'GLIBC_PRIVATE'
p1952
sg31
g1252
sbasg38
(lp1953
(iFingerPrint.swirl
Dependency
p1954
(dp1955
g1257
Nsg1258
S'libdl.so.2'
p1956
sg46
g1260
sg1261
g1262
sg31
g1252
sba(iFingerPrint.swirl
Dependency
p1957
(dp1958
g1257
Nsg1258
S'libdl.so.2'
p1959
sg46
g1260
sg1261
S'GLIBC_2.2.5'
p1960
sg31
g1252
sba(iFingerPrint.swirl
Dependency
p1961
(dp1962
g1257
Nsg1258
S'libdl.so.2'
p1963
sg46
g1260
sg1261
S'GLIBC_2.3.3'
p1964
sg31
g1252
sba(iFingerPrint.swirl
Dependency
p1965
(dp1966
g1257
Nsg1258
S'libdl.so.2'
p1967
sg46
g1260
sg1261
S'GLIBC_2.3.4'
p1968
sg31
g1252
sba(iFingerPrint.swirl
Dependency
p1969
(dp1970
g1257
Nsg1258
S'libdl.so.2'
p1971
sg46
g1260
sg1261
S'GLIBC_PRIVATE'
p1972
sg31
g1252
sbasg40
(dp1973
sg42
(lp1974
g1262
asg44
S'/lib64/libdl-2.5.so'
p1975
sg46
g1260
sba(iFingerPrint.swirl
SwirlFile
p1976
(dp1977
g1248
I00
sg25
(lp1978
sg27
(lp1979
S'/lib64/libgcc_s.so.1'
p1980
asg29
(lp1981
sg31
g1252
sg33
S'7a9d1dabdcf7d11c050bd86e944f36ba'
p1982
sg35
S'libgcc-4.1.2-50.el5'
p1983
sg36
(lp1984
(iFingerPrint.swirl
Dependency
p1985
(dp1986
g1257
Nsg1258
S'ld-linux-x86-64.so.2'
p1987
sg46
g1260
sg1261
g1262
sg31
g1252
sba(iFingerPrint.swirl
Dependency
p1988
(dp1989
g1257
Nsg1258
S'libc.so.6'
p1990
sg46
g1260
sg1261
g1262
sg31
g1252
sba(iFingerPrint.swirl
Dependency
p1991
(dp1992
g1257
Nsg1258
S'libc.so.6'
p1993
sg46
g1260
sg1261
S'GLIBC_2.2.5'
p1994
sg31
g1252
sba(iFingerPrint.swirl
Dependency
p1995
(dp1996
g1257
Nsg1258
S'libc.so.6'
p1997
sg46
g1260
sg1261
S'GLIBC_2.4'
p1998
sg31
g1252
sbasg38
(lp1999
(iFingerPrint.swirl
Dependency
p2000
(dp2001
g1257
Nsg1258
S'libgcc_s.so.1'
p2002
sg46
g1260
sg1261
g1262
sg31
g1252
sba(iFingerPrint.swirl
Dependency
p2003
(dp2004
g1257
Nsg1258
S'libgcc_s.so.1'
p2005
sg46
g1260
sg1261
S'GCC_3.0'
p2006
sg31
g1252
sba(iFingerPrint.swirl
Dependency
p2007
(dp2008
g1257
Nsg1258
S'libgcc_s.so.1'
p2009
sg46
g1260
sg1261
S'GCC_3.3.1'
p2010
sg31
g1252
sba(iFingerPrint.swirl
Dependency
p2011
(dp2012
g1257
Nsg1258
S'libgcc_s.so.1'
p2013
sg46
g1260
sg1261
S'GCC_3.3'
p2014
sg31
g1252
sba(iFingerPrint.swirl
Dependency
p2015
(dp2016
g1257
Nsg1258
S'libgcc_s.so.1'
p2017
sg46
g1260
sg1261
S'GCC_3.4.2'
p2018
sg31
g1252
sba(iFingerPrint.swirl
Dependency
p2019
(dp2020
g1257
Nsg1258
S'libgcc_s.so.1'
p2021
sg46
g1260
sg1261
S'GCC_3.4.4'
p2022
sg31
g1252
sba(iFingerPrint.swirl
Dependency
p2023
(dp2024
g1257
Nsg1258
S'libgcc_s.so.1'
p2025
sg46
g1260
sg1261
S'GCC_3.4'
p2026
sg31
g1252
sba(iFingerPrint.swirl
Dependency
p2027
(dp2028
g1257
Nsg1258
S'libgcc_s.so.1'
p2029
sg46
g1260
sg1261
S'GCC_4.0.0'
p2030
sg31
g1252
sba(iFingerPrint.swirl
Dependency
p2031
(dp2032
g1257
Nsg1258
S'libgcc_s.so.1'
p2033
sg46
g1260
sg1261
S'GCC_4.2.0'
p2034
sg31
g1252
sbasg40
(dp2035
sg42
(lp2036
g1262
asg44
S'/lib64/libgcc_s-4.1.2-20080825.so.1'
p2037
sg46
g1260
sba(iFingerPrint.swirl
SwirlFile
p2038
(dp2039
g1248
I00
sg25
(lp2040
sg27
(lp2041
S'/opt/mvapich2/intel/ib/lib/libmpich.so.3'
p2042
asg29
(lp2043
sg31
g1252
sg33
S'25b6f49e6cc0a70acecdc7f91f6326a2'
p2044
sg35
S'mvapich2_intel_ib-1.8a1p1-1'
p2045
sg36
(lp2046
(iFingerPrint.swirl
Dependency
p2047
(dp2048
g1257
Nsg1258
S'ld-linux-x86-64.so.2'
p2049
sg46
g1260
sg1261
g1262
sg31
g1252
sba(iFingerPrint.swirl
Dependency
p2050
(dp2051
g1257
Nsg1258
S'ld-linux-x86-64.so.2'
p2052
sg46
g1260
sg1261
S'GLIBC_2.3'
p2053
sg31
g1252
sba(iFingerPrint.swirl
Dependency
p2054
(dp2055
g1257
Nsg1258
S'libc.so.6'
p2056
sg46
g1260
sg1261
g1262
sg31
g1252
sba(iFingerPrint.swirl
Dependency
p2057
(dp2058
g1257
Nsg1258
S'libc.so.6'
p2059
sg46
g1260
sg1261
S'GLIBC_2.2.5'
p2060
sg31
g1252
sba(iFingerPrint.swirl
Dependency
p2061
(dp2062
g1257
Nsg1258
S'libc.so.6'
p2063
sg46
g1260
sg1261
S'GLIBC_2.3.2'
p2064
sg31
g1252
sba(iFingerPrint.swirl
Dependency
p2065
(dp2066
g1257
Nsg1258
S'libc.so.6'
p2067
sg46
g1260
sg1261
S'GLIBC_2.3.3'
p2068
sg31
g1252
sba(iFingerPrint.swirl
Dependency
p2069
(dp2070
g1257
Nsg1258
S'libc.so.6'
p2071
sg46
g1260
sg1261
S'GLIBC_2.3.4'
p2072
sg31
g1252
sba(iFingerPrint.swirl
Dependency
p2073
(dp2074
g1257
Nsg1258
S'libc.so.6'
p2075
sg46
g1260
sg1261
S'GLIBC_2.3'
p2076
sg31
g1252
sba(iFingerPrint.swirl
Dependency
p2077
(dp2078
g1257
Nsg1258
S'libc.so.6'
p2079
sg46
g1260
sg1261
S'GLIBC_2.4'
p2080
sg31
g1252
sba(iFingerPrint.swirl
Dependency
p2081
(dp2082
g1257
Nsg1258
S'libdl.so.2'
p2083
sg46
g1260
sg1261
g1262
sg31
g1252
sba(iFingerPrint.swirl
Dependency
p2084
(dp2085
g1257
Nsg1258
S'libgcc_s.so.1'
p2086
sg46
g1260
sg1261
g1262
sg31
g1252
sba(iFingerPrint.swirl
Dependency
p2087
(dp2088
g1257
Nsg1258
S'libibumad.so.3'
p2089
sg46
g1260
sg1261
g1262
sg31
g1252
sba(iFingerPrint.swirl
Dependency
p2090
(dp2091
g1257
Nsg1258
S'libibumad.so.3'
p2092
sg46
g1260
sg1261
S'IBUMAD_1.0'
p2093
sg31
g1252
sba(iFingerPrint.swirl
Dependency
p2094
(dp2095
g1257
Nsg1258
S'libibverbs.so.1'
p2096
sg46
g1260
sg1261
g1262
sg31
g1252
sba(iFingerPrint.swirl
Dependency
p2097
(dp2098
g1257
Nsg1258
S'libibverbs.so.1'
p2099
sg46
g1260
sg1261
S'IBVERBS_1.0'
p2100
sg31
g1252
sba(iFingerPrint.swirl
Dependency
p2101
(dp2102
g1257
Nsg1258
S'libibverbs.so.1'
p2103
sg46
g1260
sg1261
S'IBVERBS_1.1'
p2104
sg31
g1252
sba(iFingerPrint.swirl
Dependency
p2105
(dp2106
g1257
Nsg1258
S'libimf.so'
p2107
sg46
g1260
sg1261
g1262
sg31
g1252
sba(iFingerPrint.swirl
Dependency
p2108
(dp2109
g1257
Nsg1258
S'libintlc.so.5'
p2110
sg46
g1260
sg1261
g1262
sg31
g1252
sba(iFingerPrint.swirl
Dependency
p2111
(dp2112
g1257
Nsg1258
S'liblimic2.so.0'
p2113
sg46
g1260
sg1261
g1262
sg31
g1252
sba(iFingerPrint.swirl
Dependency
p2114
(dp2115
g1257
Nsg1258
S'libm.so.6'
p2116
sg46
g1260
sg1261
g1262
sg31
g1252
sba(iFingerPrint.swirl
Dependency
p2117
(dp2118
g1257
Nsg1258
S'libpthread.so.0'
p2119
sg46
g1260
sg1261
g1262
sg31
g1252
sba(iFingerPrint.swirl
Dependency
p2120
(dp2121
g1257
Nsg1258
S'libpthread.so.0'
p2122
sg46
g1260
sg1261
S'GLIBC_2.2.5'
p2123
sg31
g1252
sba(iFingerPrint.swirl
Dependency
p2124
(dp2125
g1257
Nsg1258
S'libpthread.so.0'
p2126
sg46
g1260
sg1261
S'GLIBC_2.3.2'
p2127
sg31
g1252
sba(iFingerPrint.swirl
Dependency
p2128
(dp2129
g1257
Nsg1258
S'libpthread.so.0'
p2130
sg46
g1260
sg1261
S'GLIBC_2.3.4'
p2131
sg31
g1252
sba(iFingerPrint.swirl
Dependency
p2132
(dp2133
g1257
Nsg1258
S'librdmacm.so.1'
p2134
sg46
g1260
sg1261
g1262
sg31
g1252
sba(iFingerPrint.swirl
Dependency
p2135
(dp2136
g1257
Nsg1258
S'librdmacm.so.1'
p2137
sg46
g1260
sg1261
S'RDMACM_1.0'
p2138
sg31
g1252
sba(iFingerPrint.swirl
Dependency
p2139
(dp2140
g1257
Nsg1258
S'librt.so.1'
p2141
sg46
g1260
sg1261
g1262
sg31
g1252
sba(iFingerPrint.swirl
Dependency
p2142
(dp2143
g1257
Nsg1258
S'librt.so.1'
p2144
sg46
g1260
sg1261
S'GLIBC_2.2.5'
p2145
sg31
g1252
sba(iFingerPrint.swirl
Dependency
p2146
(dp2147
g1257
Nsg1258
S'libsvml.so'
p2148
sg46
g1260
sg1261
g1262
sg31
g1252
sbasg38
(lp2149
(iFingerPrint.swirl
Dependency
p2150
(dp2151
g1257
Nsg1258
S'libmpich.so.3'
p2152
sg46
g1260
sg1261
g1262
sg31
g1252
sbasg40
(dp2153
sg42
(lp2154
g1262
asg44
S'/opt/mvapich2/intel/ib/lib/libmpich.so.3.3'
p2155
sg46
g1260
sba(iFingerPrint.swirl
SwirlFile
p2156
(dp2157
g1248
I00
sg25
(lp2158
sg27
(lp2159
S'/usr/lib64/libibumad.so.3'
p2160
asg29
(lp2161
sg31
g1252
sg33
S'b93051b085b3fa3839715471e2634462'
p2162
sg35
S'libibumad-1.3.7-1'
p2163
sg36
(lp2164
(iFingerPrint.swirl
Dependency
p2165
(dp2166
g1257
Nsg1258
S'ld-linux-x86-64.so.2'
p2167
sg46
g1260
sg1261
g1262
sg31
g1252
sba(iFingerPrint.swirl
Dependency
p2168
(dp2169
g1257
Nsg1258
S'libc.so.6'
p2170
sg46
g1260
sg1261
g1262
sg31
g1252
sba(iFingerPrint.swirl
Dependency
p2171
(dp2172
g1257
Nsg1258
S'libc.so.6'
p2173
sg46
g1260
sg1261
S'GLIBC_2.2.5'
p2174
sg31
g1252
sba(iFingerPrint.swirl
Dependency
p2175
(dp2176
g1257
Nsg1258
S'libc.so.6'
p2177
sg46
g1260
sg1261
S'GLIBC_2.3.4'
p2178
sg31
g1252
sba(iFingerPrint.swirl
Dependency
p2179
(dp2180
g1257
Nsg1258
S'libc.so.6'
p2181
sg46
g1260
sg1261
S'GLIBC_2.3'
p2182
sg31
g1252
sba(iFingerPrint.swirl
Dependency
p2183
(dp2184
g1257
Nsg1258
S'libc.so.6'
p2185
sg46
g1260
sg1261
S'GLIBC_2.4'
p2186
sg31
g1252
sbasg38
(lp2187
(iFingerPrint.swirl
Dependency
p2188
(dp2189
g1257
Nsg1258
S'libibumad.so.3'
p2190
sg46
g1260
sg1261
g1262
sg31
g1252
sba(iFingerPrint.swirl
Dependency
p2191
(dp2192
g1257
Nsg1258
S'libibumad.so.3'
p2193
sg46
g1260
sg1261
S'IBUMAD_1.0'
p2194
sg31
g1252
sbasg40
(dp2195
sg42
(lp2196
g1262
asg44
S'/usr/lib64/libibumad.so.3.0.2'
p2197
sg46
g1260
sba(iFingerPrint.swirl
SwirlFile
p2198
(dp2199
g1248
I00
sg25
(lp2200
sg27
(lp2201
S'/usr/lib64/libibverbs.so.1'
p2202
asg29
(lp2203
sg31
g1252
sg33
S'dab5699d5e375fff7b5d1dec0e179283'
p2204
sg35
S'libibverbs-1.1.4-1.23.g6ccf63e'
p2205
sg36
(lp2206
(iFingerPrint.swirl
Dependency
p2207
(dp2208
g1257
Nsg1258
S'ld-linux-x86-64.so.2'
p2209
sg46
g1260
sg1261
g1262
sg31
g1252
sba(iFingerPrint.swirl
Dependency
p2210
(dp2211
g1257
Nsg1258
S'libc.so.6'
p2212
sg46
g1260
sg1261
g1262
sg31
g1252
sba(iFingerPrint.swirl
Dependency
p2213
(dp2214
g1257
Nsg1258
S'libc.so.6'
p2215
sg46
g1260
sg1261
S'GLIBC_2.2.5'
p2216
sg31
g1252
sba(iFingerPrint.swirl
Dependency
p2217
(dp2218
g1257
Nsg1258
S'libc.so.6'
p2219
sg46
g1260
sg1261
S'GLIBC_2.3.4'
p2220
sg31
g1252
sba(iFingerPrint.swirl
Dependency
p2221
(dp2222
g1257
Nsg1258
S'libc.so.6'
p2223
sg46
g1260
sg1261
S'GLIBC_2.4'
p2224
sg31
g1252
sba(iFingerPrint.swirl
Dependency
p2225
(dp2226
g1257
Nsg1258
S'libdl.so.2'
p2227
sg46
g1260
sg1261
g1262
sg31
g1252
sba(iFingerPrint.swirl
Dependency
p2228
(dp2229
g1257
Nsg1258
S'libdl.so.2'
p2230
sg46
g1260
sg1261
S'GLIBC_2.2.5'
p2231
sg31
g1252
sba(iFingerPrint.swirl
Dependency
p2232
(dp2233
g1257
Nsg1258
S'libpthread.so.0'
p2234
sg46
g1260
sg1261
g1262
sg31
g1252
sba(iFingerPrint.swirl
Dependency
p2235
(dp2236
g1257
Nsg1258
S'libpthread.so.0'
p2237
sg46
g1260
sg1261
S'GLIBC_2.2.5'
p2238
sg31
g1252
sba(iFingerPrint.swirl
Dependency
p2239
(dp2240
g1257
Nsg1258
S'libpthread.so.0'
p2241
sg46
g1260
sg1261
S'GLIBC_2.3.2'
p2242
sg31
g1252
sbasg38
(lp2243
(iFingerPrint.swirl
Dependency
p2244
(dp2245
g1257
Nsg1258
S'libibverbs.so.1'
p2246
sg46
g1260
sg1261
g1262
sg31
g1252
sba(iFingerPrint.swirl
Dependency
p2247
(dp2248
g1257
Nsg1258
S'libibverbs.so.1'
p2249
sg46
g1260
sg1261
S'IBVERBS_1.0'
p2250
sg31
g1252
sba(iFingerPrint.swirl
Dependency
p2251
(dp2252
g1257
Nsg1258
S'libibverbs.so.1'
p2253
sg46
g1260
sg1261
S'IBVERBS_1.1'
p2254
sg31
g1252
sbasg40
(dp2255
sg42
(lp2256
g1262
asg44
S'/usr/lib64/libibverbs.so.1.0.0'
p2257
sg46
g1260
sba(iFingerPrint.swirl
SwirlFile
p2258
(dp2259
g1248
I00
sg25
(lp2260
sg27
(lp2261
S'/lib64/libpthread.so.0'
p2262
asg29
(lp2263
sg31
g1252
sg33
S'f886a197c76e1c1c6da82634fb6b6f05'
p2264
sg35
S'glibc-2.5-58.el5_6.4'
p2265
sg36
(lp2266
(iFingerPrint.swirl
Dependency
p2267
(dp2268
g1257
Nsg1258
S'ld-linux-x86-64.so.2'
p2269
sg46
g1260
sg1261
g1262
sg31
g1252
sba(iFingerPrint.swirl
Dependency
p2270
(dp2271
g1257
Nsg1258
S'ld-linux-x86-64.so.2'
p2272
sg46
g1260
sg1261
S'GLIBC_2.2.5'
p2273
sg31
g1252
sba(iFingerPrint.swirl
Dependency
p2274
(dp2275
g1257
Nsg1258
S'ld-linux-x86-64.so.2'
p2276
sg46
g1260
sg1261
S'GLIBC_2.3'
p2277
sg31
g1252
sba(iFingerPrint.swirl
Dependency
p2278
(dp2279
g1257
Nsg1258
S'ld-linux-x86-64.so.2'
p2280
sg46
g1260
sg1261
S'GLIBC_PRIVATE'
p2281
sg31
g1252
sba(iFingerPrint.swirl
Dependency
p2282
(dp2283
g1257
Nsg1258
S'libc.so.6'
p2284
sg46
g1260
sg1261
g1262
sg31
g1252
sba(iFingerPrint.swirl
Dependency
p2285
(dp2286
g1257
Nsg1258
S'libc.so.6'
p2287
sg46
g1260
sg1261
S'GLIBC_2.2.5'
p2288
sg31
g1252
sba(iFingerPrint.swirl
Dependency
p2289
(dp2290
g1257
Nsg1258
S'libc.so.6'
p2291
sg46
g1260
sg1261
S'GLIBC_2.3.2'
p2292
sg31
g1252
sba(iFingerPrint.swirl
Dependency
p2293
(dp2294
g1257
Nsg1258
S'libc.so.6'
p2295
sg46
g1260
sg1261
S'GLIBC_PRIVATE'
p2296
sg31
g1252
sbasg38
(lp2297
(iFingerPrint.swirl
Dependency
p2298
(dp2299
g1257
Nsg1258
S'libpthread.so.0'
p2300
sg46
g1260
sg1261
g1262
sg31
g1252
sba(iFingerPrint.swirl
Dependency
p2301
(dp2302
g1257
Nsg1258
S'libpthread.so.0'
p2303
sg46
g1260
sg1261
S'GLIBC_2.2.5'
p2304
sg31
g1252
sba(iFingerPrint.swirl
Dependency
p2305
(dp2306
g1257
Nsg1258
S'libpthread.so.0'
p2307
sg46
g1260
sg1261
S'GLIBC_2.2.6'
p2308
sg31
g1252
sba(iFingerPrint.swirl
Dependency
p2309
(dp2310
g1257
Nsg1258
S'libpthread.so.0'
p2311
sg46
g1260
sg1261
S'GLIBC_2.3.2'
p2312
sg31
g1252
sba(iFingerPrint.swirl
Dependency
p2313
(dp2314
g1257
Nsg1258
S'libpthread.so.0'
p2315
sg46
g1260
sg1261
S'GLIBC_2.3.3'
p2316
sg31
g1252
sba(iFingerPrint.swirl
Dependency
p2317
(dp2318
g1257
Nsg1258
S'libpthread.so.0'
p2319
sg46
g1260
sg1261
S'GLIBC_2.3.4'
p2320
sg31
g1252
sba(iFingerPrint.swirl
Dependency
p2321
(dp2322
g1257
Nsg1258
S'libpthread.so.0'
p2323
sg46
g1260
sg1261
S'GLIBC_2.4'
p2324
sg31
g1252
sba(iFingerPrint.swirl
Dependency
p2325
(dp2326
g1257
Nsg1258
S'libpthread.so.0'
p2327
sg46
g1260
sg1261
S'GLIBC_PRIVATE'
p2328
sg31
g1252
sbasg40
(dp2329
sg42
(lp2330
g1262
asg44
S'/lib64/libpthread-2.5.so'
p2331
sg46
g1260
sba(iFingerPrint.swirl
SwirlFile
p2332
(dp2333
g1248
I00
sg25
(lp2334
sg27
(lp2335
sg29
(lp2336
sg31
g1252
sg33
S'fe20a9b2d55d85ceb8e147ec17695fec'
p2337
sg35
S'intel-openmp-256-12.1-7'
p2338
sg36
(lp2339
(iFingerPrint.swirl
Dependency
p2340
(dp2341
g1257
Nsg1258
S'ld-linux-x86-64.so.2'
p2342
sg46
g1260
sg1261
g1262
sg31
g1252
sba(iFingerPrint.swirl
Dependency
p2343
(dp2344
g1257
Nsg1258
S'libc.so.6'
p2345
sg46
g1260
sg1261
g1262
sg31
g1252
sba(iFingerPrint.swirl
Dependency
p2346
(dp2347
g1257
Nsg1258
S'libc.so.6'
p2348
sg46
g1260
sg1261
S'GLIBC_2.2.5'
p2349
sg31
g1252
sba(iFingerPrint.swirl
Dependency
p2350
(dp2351
g1257
Nsg1258
S'libintlc.so.5'
p2352
sg46
g1260
sg1261
g1262
sg31
g1252
sbasg38
(lp2353
(iFingerPrint.swirl
Dependency
p2354
(dp2355
g1257
Nsg1258
S'libimf.so'
p2356
sg46
g1260
sg1261
g1262
sg31
g1252
sbasg40
(dp2357
sg42
(lp2358
g1262
asg44
S'/opt/intel/composer_xe_2011_sp1.7.256/compiler/lib/intel64/libimf.so'
p2359
sg46
g1260
sba(iFingerPrint.swirl
SwirlFile
p2360
(dp2361
g1248
I00
sg25
(lp2362
sg27
(lp2363
sg29
(lp2364
sg31
g1252
sg33
S'36032bdb404a9b22052fca9be45f0032'
p2365
sg35
S'intel-openmp-256-12.1-7'
p2366
sg36
(lp2367
(iFingerPrint.swirl
Dependency
p2368
(dp2369
g1257
Nsg1258
S'ld-linux-x86-64.so.2'
p2370
sg46
g1260
sg1261
g1262
sg31
g1252
sba(iFingerPrint.swirl
Dependency
p2371
(dp2372
g1257
Nsg1258
S'libc.so.6'
p2373
sg46
g1260
sg1261
g1262
sg31
g1252
sba(iFingerPrint.swirl
Dependency
p2374
(dp2375
g1257
Nsg1258
S'libc.so.6'
p2376
sg46
g1260
sg1261
S'GLIBC_2.2.5'
p2377
sg31
g1252
sbasg38
(lp2378
(iFingerPrint.swirl
Dependency
p2379
(dp2380
g1257
Nsg1258
S'libintlc.so.5'
p2381
sg46
g1260
sg1261
g1262
sg31
g1252
sbasg40
(dp2382
sg42
(lp2383
g1262
asg44
S'/opt/intel/composer_xe_2011_sp1.7.256/compiler/lib/intel64/libintlc.so.5'
p2384
sg46
g1260
sba(iFingerPrint.swirl
SwirlFile
p2385
(dp2386
g1248
I00
sg25
(lp2387
sg27
(lp2388
S'/opt/mvapich2/intel/ib/lib/liblimic2.so.0'
p2389
asg29
(lp2390
sg31
g1252
sg33
S'9b961ab00c5daaa7add8a8e913cd9ece'
p2391
sg35
S'mvapich2_intel_ib-1.8a1p1-1'
p2392
sg36
(lp2393
(iFingerPrint.swirl
Dependency
p2394
(dp2395
g1257
Nsg1258
S'ld-linux-x86-64.so.2'
p2396
sg46
g1260
sg1261
g1262
sg31
g1252
sba(iFingerPrint.swirl
Dependency
p2397
(dp2398
g1257
Nsg1258
S'libc.so.6'
p2399
sg46
g1260
sg1261
g1262
sg31
g1252
sba(iFingerPrint.swirl
Dependency
p2400
(dp2401
g1257
Nsg1258
S'libc.so.6'
p2402
sg46
g1260
sg1261
S'GLIBC_2.2.5'
p2403
sg31
g1252
sbasg38
(lp2404
(iFingerPrint.swirl
Dependency
p2405
(dp2406
g1257
Nsg1258
S'liblimic2.so.0'
p2407
sg46
g1260
sg1261
g1262
sg31
g1252
sbasg40
(dp2408
sg42
(lp2409
g1262
asg44
S'/opt/mvapich2/intel/ib/lib/liblimic2.so.0.0.0'
p2410
sg46
g1260
sba(iFingerPrint.swirl
SwirlFile
p2411
(dp2412
g1248
I00
sg25
(lp2413
sg27
(lp2414
S'/lib64/libm.so.6'
p2415
asg29
(lp2416
sg31
g1252
sg33
S'183a2f04a24da2db918ea503a8d401fe'
p2417
sg35
S'glibc-2.5-58.el5_6.4'
p2418
sg36
(lp2419
(iFingerPrint.swirl
Dependency
p2420
(dp2421
g1257
Nsg1258
S'ld-linux-x86-64.so.2'
p2422
sg46
g1260
sg1261
g1262
sg31
g1252
sba(iFingerPrint.swirl
Dependency
p2423
(dp2424
g1257
Nsg1258
S'libc.so.6'
p2425
sg46
g1260
sg1261
g1262
sg31
g1252
sba(iFingerPrint.swirl
Dependency
p2426
(dp2427
g1257
Nsg1258
S'libc.so.6'
p2428
sg46
g1260
sg1261
S'GLIBC_2.2.5'
p2429
sg31
g1252
sbasg38
(lp2430
(iFingerPrint.swirl
Dependency
p2431
(dp2432
g1257
Nsg1258
S'libm.so.6'
p2433
sg46
g1260
sg1261
g1262
sg31
g1252
sba(iFingerPrint.swirl
Dependency
p2434
(dp2435
g1257
Nsg1258
S'libm.so.6'
p2436
sg46
g1260
sg1261
S'GLIBC_2.2.5'
p2437
sg31
g1252
sba(iFingerPrint.swirl
Dependency
p2438
(dp2439
g1257
Nsg1258
S'libm.so.6'
p2440
sg46
g1260
sg1261
S'GLIBC_2.4'
p2441
sg31
g1252
sbasg40
(dp2442
sg42
(lp2443
g1262
asg44
S'/lib64/libm-2.5.so'
p2444
sg46
g1260
sba(iFingerPrint.swirl
SwirlFile
p2445
(dp2446
g1248
I00
sg25
(lp2447
sg27
(lp2448
S'/usr/lib64/librdmacm.so.1'
p2449
asg29
(lp2450
sg31
g1252
sg33
S'83e1e8c2259a7e950f9812a011735beb'
p2451
sg35
S'librdmacm-1.0.14.1-1'
p2452
sg36
(lp2453
(iFingerPrint.swirl
Dependency
p2454
(dp2455
g1257
Nsg1258
S'ld-linux-x86-64.so.2'
p2456
sg46
g1260
sg1261
g1262
sg31
g1252
sba(iFingerPrint.swirl
Dependency
p2457
(dp2458
g1257
Nsg1258
S'libc.so.6'
p2459
sg46
g1260
sg1261
g1262
sg31
g1252
sba(iFingerPrint.swirl
Dependency
p2460
(dp2461
g1257
Nsg1258
S'libc.so.6'
p2462
sg46
g1260
sg1261
S'GLIBC_2.2.5'
p2463
sg31
g1252
sba(iFingerPrint.swirl
Dependency
p2464
(dp2465
g1257
Nsg1258
S'libc.so.6'
p2466
sg46
g1260
sg1261
S'GLIBC_2.3.2'
p2467
sg31
g1252
sba(iFingerPrint.swirl
Dependency
p2468
(dp2469
g1257
Nsg1258
S'libc.so.6'
p2470
sg46
g1260
sg1261
S'GLIBC_2.3.4'
p2471
sg31
g1252
sba(iFingerPrint.swirl
Dependency
p2472
(dp2473
g1257
Nsg1258
S'libc.so.6'
p2474
sg46
g1260
sg1261
S'GLIBC_2.4'
p2475
sg31
g1252
sba(iFingerPrint.swirl
Dependency
p2476
(dp2477
g1257
Nsg1258
S'libibverbs.so.1'
p2478
sg46
g1260
sg1261
g1262
sg31
g1252
sba(iFingerPrint.swirl
Dependency
p2479
(dp2480
g1257
Nsg1258
S'libibverbs.so.1'
p2481
sg46
g1260
sg1261
S'IBVERBS_1.0'
p2482
sg31
g1252
sba(iFingerPrint.swirl
Dependency
p2483
(dp2484
g1257
Nsg1258
S'libibverbs.so.1'
p2485
sg46
g1260
sg1261
S'IBVERBS_1.1'
p2486
sg31
g1252
sbasg38
(lp2487
(iFingerPrint.swirl
Dependency
p2488
(dp2489
g1257
Nsg1258
S'librdmacm.so.1'
p2490
sg46
g1260
sg1261
g1262
sg31
g1252
sba(iFingerPrint.swirl
Dependency
p2491
(dp2492
g1257
Nsg1258
S'librdmacm.so.1'
p2493
sg46
g1260
sg1261
S'RDMACM_1.0'
p2494
sg31
g1252
sbasg40
(dp2495
sg42
(lp2496
g1262
asg44
S'/usr/lib64/librdmacm.so.1.0.0'
p2497
sg46
g1260
sba(iFingerPrint.swirl
SwirlFile
p2498
(dp2499
g1248
I00
sg25
(lp2500
sg27
(lp2501
S'/lib64/librt.so.1'
p2502
asg29
(lp2503
sg31
g1252
sg33
S'75972dde6297705248f6a8a164cd556f'
p2504
sg35
S'glibc-2.5-58.el5_6.4'
p2505
sg36
(lp2506
(iFingerPrint.swirl
Dependency
p2507
(dp2508
g1257
Nsg1258
S'ld-linux-x86-64.so.2'
p2509
sg46
g1260
sg1261
g1262
sg31
g1252
sba(iFingerPrint.swirl
Dependency
p2510
(dp2511
g1257
Nsg1258
S'ld-linux-x86-64.so.2'
p2512
sg46
g1260
sg1261
S'GLIBC_PRIVATE'
p2513
sg31
g1252
sba(iFingerPrint.swirl
Dependency
p2514
(dp2515
g1257
Nsg1258
S'libc.so.6'
p2516
sg46
g1260
sg1261
g1262
sg31
g1252
sba(iFingerPrint.swirl
Dependency
p2517
(dp2518
g1257
Nsg1258
S'libc.so.6'
p2519
sg46
g1260
sg1261
S'GLIBC_2.2.5'
p2520
sg31
g1252
sba(iFingerPrint.swirl
Dependency
p2521
(dp2522
g1257
Nsg1258
S'libc.so.6'
p2523
sg46
g1260
sg1261
S'GLIBC_2.3.2'
p2524
sg31
g1252
sba(iFingerPrint.swirl
Dependency
p2525
(dp2526
g1257
Nsg1258
S'libc.so.6'
p2527
sg46
g1260
sg1261
S'GLIBC_PRIVATE'
p2528
sg31
g1252
sba(iFingerPrint.swirl
Dependency
p2529
(dp2530
g1257
Nsg1258
S'libpthread.so.0'
p2531
sg46
g1260
sg1261
g1262
sg31
g1252
sba(iFingerPrint.swirl
Dependency
p2532
(dp2533
g1257
Nsg1258
S'libpthread.so.0'
p2534
sg46
g1260
sg1261
S'GLIBC_2.2.5'
p2535
sg31
g1252
sba(iFingerPrint.swirl
Dependency
p2536
(dp2537
g1257
Nsg1258
S'libpthread.so.0'
p2538
sg46
g1260
sg1261
S'GLIBC_PRIVATE'
p2539
sg31
g1252
sbasg38
(lp2540
(iFingerPrint.swirl
Dependency
p2541
(dp2542
g1257
Nsg1258
S'librt.so.1'
p2543
sg46
g1260
sg1261
g1262
sg31
g1252
sba(iFingerPrint.swirl
Dependency
p2544
(dp2545
g1257
Nsg1258
S'librt.so.1'
p2546
sg46
g1260
sg1261
S'GLIBC_2.2.5'
p2547
sg31
g1252
sba(iFingerPrint.swirl
Dependency
p2548
(dp2549
g1257
Nsg1258
S'librt.so.1'
p2550
sg46
g1260
sg1261
S'GLIBC_2.3.3'
p2551
sg31
g1252
sba(iFingerPrint.swirl
Dependency
p2552
(dp2553
g1257
Nsg1258
S'librt.so.1'
p2554
sg46
g1260
sg1261
S'GLIBC_2.3.4'
p2555
sg31
g1252
sba(iFingerPrint.swirl
Dependency
p2556
(dp2557
g1257
Nsg1258
S'librt.so.1'
p2558
sg46
g1260
sg1261
S'GLIBC_2.4'
p2559
sg31
g1252
sbasg40
(dp2560
sg42
(lp2561
g1262
asg44
S'/lib64/librt-2.5.so'
p2562
sg46
g1260
sba(iFingerPrint.swirl
SwirlFile
p2563
(dp2564
g1248
I00
sg25
(lp2565
sg27
(lp2566
sg29
(lp2567
sg31
g1252
sg33
S'b9303381d5cad3c0aa8644eae40e2b2a'
p2568
sg35
S'intel-openmp-256-12.1-7'
p2569
sg36
(lp2570
(iFingerPrint.swirl
Dependency
p2571
(dp2572
g1257
Nsg1258
S'ld-linux-x86-64.so.2'
p2573
sg46
g1260
sg1261
g1262
sg31
g1252
sba(iFingerPrint.swirl
Dependency
p2574
(dp2575
g1257
Nsg1258
S'libc.so.6'
p2576
sg46
g1260
sg1261
g1262
sg31
g1252
sba(iFingerPrint.swirl
Dependency
p2577
(dp2578
g1257
Nsg1258
S'libintlc.so.5'
p2579
sg46
g1260
sg1261
g1262
sg31
g1252
sbasg38
(lp2580
(iFingerPrint.swirl
Dependency
p2581
(dp2582
g1257
Nsg1258
S'libsvml.so'
p2583
sg46
g1260
sg1261
g1262
sg31
g1252
sbasg40
(dp2584
sg42
(lp2585
g1262
asg44
S'/opt/intel/composer_xe_2011_sp1.7.256/compiler/lib/intel64/libsvml.so'
p2586
sg46
g1260
sba(iFingerPrint.swirl
SwirlFile
p2587
(dp2588
g1248
I00
sg25
(lp2589
sg27
(lp2590
S'/opt/mvapich2/intel/ib/lib/libmpl.so.1'
p2591
asg29
(lp2592
sg31
g1252
sg33
S'80abe8ac293f556355470bc38295234a'
p2593
sg35
S'mvapich2_intel_ib-1.8a1p1-1'
p2594
sg36
(lp2595
(iFingerPrint.swirl
Dependency
p2596
(dp2597
g1257
Nsg1258
S'ld-linux-x86-64.so.2'
p2598
sg46
g1260
sg1261
g1262
sg31
g1252
sba(iFingerPrint.swirl
Dependency
p2599
(dp2600
g1257
Nsg1258
S'libc.so.6'
p2601
sg46
g1260
sg1261
g1262
sg31
g1252
sba(iFingerPrint.swirl
Dependency
p2602
(dp2603
g1257
Nsg1258
S'libc.so.6'
p2604
sg46
g1260
sg1261
S'GLIBC_2.2.5'
p2605
sg31
g1252
sba(iFingerPrint.swirl
Dependency
p2606
(dp2607
g1257
Nsg1258
S'libc.so.6'
p2608
sg46
g1260
sg1261
S'GLIBC_2.3'
p2609
sg31
g1252
sba(iFingerPrint.swirl
Dependency
p2610
(dp2611
g1257
Nsg1258
S'libdl.so.2'
p2612
sg46
g1260
sg1261
g1262
sg31
g1252
sba(iFingerPrint.swirl
Dependency
p2613
(dp2614
g1257
Nsg1258
S'libgcc_s.so.1'
p2615
sg46
g1260
sg1261
g1262
sg31
g1252
sba(iFingerPrint.swirl
Dependency
p2616
(dp2617
g1257
Nsg1258
S'libimf.so'
p2618
sg46
g1260
sg1261
g1262
sg31
g1252
sba(iFingerPrint.swirl
Dependency
p2619
(dp2620
g1257
Nsg1258
S'libintlc.so.5'
p2621
sg46
g1260
sg1261
g1262
sg31
g1252
sba(iFingerPrint.swirl
Dependency
p2622
(dp2623
g1257
Nsg1258
S'libm.so.6'
p2624
sg46
g1260
sg1261
g1262
sg31
g1252
sba(iFingerPrint.swirl
Dependency
p2625
(dp2626
g1257
Nsg1258
S'libsvml.so'
p2627
sg46
g1260
sg1261
g1262
sg31
g1252
sbasg38
(lp2628
(iFingerPrint.swirl
Dependency
p2629
(dp2630
g1257
Nsg1258
S'libmpl.so.1'
p2631
sg46
g1260
sg1261
g1262
sg31
g1252
sbasg40
(dp2632
sg42
(lp2633
g1262
asg44
S'/opt/mvapich2/intel/ib/lib/libmpl.so.1.1.0'
p2634
sg46
g1260
sbag1312
ag1323
ag1334
ag1345
ag1356
ag1367
ag1378
ag1389
ag1400
ag1411
ag1422
ag1433
ag1444
ag1455
ag1466
ag1477
ag1488
ag1499
ag1510
ag1521
ag1532
ag1543
ag1554
ag1565
ag1576
ag1587
ag1598
ag1609
ag1620
ag1631
ag1642
ag1653
ag1664
ag1675
ag1686
ag1697
ag1708
ag1719
ag1730
ag1741
ag1752
ag1763
ag1774
ag1785
ag1796
ag1807
ag1818
asS'cmdLine'
p2635
NsS'creationDate'
p2636
cdatetime
datetime
p2637
(S'\x07\xdd\x07\x02\x0f#0\x08oO'
p2638
tp2639
Rp2640
sb.