ccopy_reg
_reconstructor
p0
(cFingerPrint.swirl
Swirl
p1
c__builtin__
object
p2
Ntp3
Rp4
(dp5
S'swirlFiles'
p6
(lp7
(iFingerPrint.swirl
SwirlFile
p8
(dp9
S'links'
p10
(lp11
sS'dynamicDependencies'
p12
(lp13
sS'type'
p14
S'ELF'
p15
sS'md5sum'
p16
S'c697f56c7530825b82abeefea3a22679'
p17
sS'package'
p18
NsS'staticDependencies'
p19
(lp20
(iFingerPrint.swirl
Dependency
p21
(dp22
S'hwcap'
p23
NsS'major'
p24
S'ld-linux-x86-64.so.2'
p25
sS'arch'
p26
S'x86_64'
p27
sS'minor'
p28
S''
p29
sg14
g15
sba(iFingerPrint.swirl
Dependency
p30
(dp31
g23
Nsg24
S'libc.so.6'
p32
sg26
g27
sg28
g29
sg14
g15
sba(iFingerPrint.swirl
Dependency
p33
(dp34
g23
Nsg24
S'libc.so.6'
p35
sg26
g27
sg28
S'GLIBC_2.2.5'
p36
sg14
g15
sba(iFingerPrint.swirl
Dependency
p37
(dp38
g23
Nsg24
S'libc.so.6'
p39
sg26
g27
sg28
S'GLIBC_2.3.4'
p40
sg14
g15
sba(iFingerPrint.swirl
Dependency
p41
(dp42
g23
Nsg24
S'libc.so.6'
p43
sg26
g27
sg28
S'GLIBC_2.3'
p44
sg14
g15
sba(iFingerPrint.swirl
Dependency
p45
(dp46
g23
Nsg24
S'libdl.so.2'
p47
sg26
g27
sg28
g29
sg14
g15
sba(iFingerPrint.swirl
Dependency
p48
(dp49
g23
Nsg24
S'libfftw3f.so.3'
p50
sg26
g27
sg28
g29
sg14
g15
sba(iFingerPrint.swirl
Dependency
p51
(dp52
g23
Nsg24
S'libgcc_s.so.1'
p53
sg26
g27
sg28
g29
sg14
g15
sba(iFingerPrint.swirl
Dependency
p54
(dp55
g23
Nsg24
S'libgcc_s.so.1'
p56
sg26
g27
sg28
S'GCC_3.0'
p57
sg14
g15
sba(iFingerPrint.swirl
Dependency
p58
(dp59
g23
Nsg24
S'libibumad.so.3'
p60
sg26
g27
sg28
g29
sg14
g15
sba(iFingerPrint.swirl
Dependency
p61
(dp62
g23
Nsg24
S'libibverbs.so.1'
p63
sg26
g27
sg28
g29
sg14
g15
sba(iFingerPrint.swirl
Dependency
p64
(dp65
g23
Nsg24
S'liblimic2.so.0'
p66
sg26
g27
sg28
g29
sg14
g15
sba(iFingerPrint.swirl
Dependency
p67
(dp68
g23
Nsg24
S'libmpichcxx.so.3'
p69
sg26
g27
sg28
g29
sg14
g15
sba(iFingerPrint.swirl
Dependency
p70
(dp71
g23
Nsg24
S'libmpich.so.3'
p72
sg26
g27
sg28
g29
sg14
g15
sba(iFingerPrint.swirl
Dependency
p73
(dp74
g23
Nsg24
S'libmpl.so.1'
p75
sg26
g27
sg28
g29
sg14
g15
sba(iFingerPrint.swirl
Dependency
p76
(dp77
g23
Nsg24
S'libm.so.6'
p78
sg26
g27
sg28
g29
sg14
g15
sba(iFingerPrint.swirl
Dependency
p79
(dp80
g23
Nsg24
S'libopa.so.1'
p81
sg26
g27
sg28
g29
sg14
g15
sba(iFingerPrint.swirl
Dependency
p82
(dp83
g23
Nsg24
S'libpthread.so.0'
p84
sg26
g27
sg28
g29
sg14
g15
sba(iFingerPrint.swirl
Dependency
p85
(dp86
g23
Nsg24
S'libpthread.so.0'
p87
sg26
g27
sg28
S'GLIBC_2.2.5'
p88
sg14
g15
sba(iFingerPrint.swirl
Dependency
p89
(dp90
g23
Nsg24
S'librdmacm.so.1'
p91
sg26
g27
sg28
g29
sg14
g15
sba(iFingerPrint.swirl
Dependency
p92
(dp93
g23
Nsg24
S'librt.so.1'
p94
sg26
g27
sg28
g29
sg14
g15
sba(iFingerPrint.swirl
Dependency
p95
(dp96
g23
Nsg24
S'libstdc++.so.6'
p97
sg26
g27
sg28
g29
sg14
g15
sba(iFingerPrint.swirl
Dependency
p98
(dp99
g23
Nsg24
S'libstdc++.so.6'
p100
sg26
g27
sg28
S'CXXABI_1.3'
p101
sg14
g15
sba(iFingerPrint.swirl
Dependency
p102
(dp103
g23
Nsg24
S'libstdc++.so.6'
p104
sg26
g27
sg28
S'GLIBCXX_3.4'
p105
sg14
g15
sbasS'provides'
p106
(lp107
sS'openedFiles'
p108
(lp109
sS'path'
p110
S'namd/bin/namd2'
p111
sg26
g27
sba(iFingerPrint.swirl
SwirlFile
p112
(dp113
g10
(lp114
S'/lib64/ld-linux-x86-64.so.2'
p115
asg12
(lp116
sg14
g15
sg16
S'e6d5eba2fedd41492b902aaa092c50a2'
p117
sg18
S'glibc-2.5-58.el5_6.4'
p118
sg19
(lp119
sg106
(lp120
(iFingerPrint.swirl
Dependency
p121
(dp122
g23
Nsg24
S'ld-linux-x86-64.so.2'
p123
sg26
g27
sg28
g29
sg14
g15
sba(iFingerPrint.swirl
Dependency
p124
(dp125
g23
Nsg24
S'ld-linux-x86-64.so.2'
p126
sg26
g27
sg28
S'GLIBC_2.2.5'
p127
sg14
g15
sba(iFingerPrint.swirl
Dependency
p128
(dp129
g23
Nsg24
S'ld-linux-x86-64.so.2'
p130
sg26
g27
sg28
S'GLIBC_2.3'
p131
sg14
g15
sba(iFingerPrint.swirl
Dependency
p132
(dp133
g23
Nsg24
S'ld-linux-x86-64.so.2'
p134
sg26
g27
sg28
S'GLIBC_2.4'
p135
sg14
g15
sba(iFingerPrint.swirl
Dependency
p136
(dp137
g23
Nsg24
S'ld-linux-x86-64.so.2'
p138
sg26
g27
sg28
S'GLIBC_PRIVATE'
p139
sg14
g15
sbasg108
(lp140
sg110
S'/lib64/ld-2.5.so'
p141
sg26
g27
sba(iFingerPrint.swirl
SwirlFile
p142
(dp143
g10
(lp144
S'/lib64/libc.so.6'
p145
asg12
(lp146
sg14
g15
sg16
S'c44374b32d0cb75717ceae9406d75461'
p147
sg18
S'glibc-2.5-58.el5_6.4'
p148
sg19
(lp149
(iFingerPrint.swirl
Dependency
p150
(dp151
g23
Nsg24
S'ld-linux-x86-64.so.2'
p152
sg26
g27
sg28
g29
sg14
g15
sba(iFingerPrint.swirl
Dependency
p153
(dp154
g23
Nsg24
S'ld-linux-x86-64.so.2'
p155
sg26
g27
sg28
S'GLIBC_2.3'
p156
sg14
g15
sba(iFingerPrint.swirl
Dependency
p157
(dp158
g23
Nsg24
S'ld-linux-x86-64.so.2'
p159
sg26
g27
sg28
S'GLIBC_PRIVATE'
p160
sg14
g15
sbasg106
(lp161
(iFingerPrint.swirl
Dependency
p162
(dp163
g23
Nsg24
S'libc.so.6'
p164
sg26
g27
sg28
g29
sg14
g15
sba(iFingerPrint.swirl
Dependency
p165
(dp166
g23
Nsg24
S'libc.so.6'
p167
sg26
g27
sg28
S'GLIBC_2.2.5'
p168
sg14
g15
sba(iFingerPrint.swirl
Dependency
p169
(dp170
g23
Nsg24
S'libc.so.6'
p171
sg26
g27
sg28
S'GLIBC_2.2.6'
p172
sg14
g15
sba(iFingerPrint.swirl
Dependency
p173
(dp174
g23
Nsg24
S'libc.so.6'
p175
sg26
g27
sg28
S'GLIBC_2.3.2'
p176
sg14
g15
sba(iFingerPrint.swirl
Dependency
p177
(dp178
g23
Nsg24
S'libc.so.6'
p179
sg26
g27
sg28
S'GLIBC_2.3.3'
p180
sg14
g15
sba(iFingerPrint.swirl
Dependency
p181
(dp182
g23
Nsg24
S'libc.so.6'
p183
sg26
g27
sg28
S'GLIBC_2.3.4'
p184
sg14
g15
sba(iFingerPrint.swirl
Dependency
p185
(dp186
g23
Nsg24
S'libc.so.6'
p187
sg26
g27
sg28
S'GLIBC_2.3'
p188
sg14
g15
sba(iFingerPrint.swirl
Dependency
p189
(dp190
g23
Nsg24
S'libc.so.6'
p191
sg26
g27
sg28
S'GLIBC_2.4'
p192
sg14
g15
sba(iFingerPrint.swirl
Dependency
p193
(dp194
g23
Nsg24
S'libc.so.6'
p195
sg26
g27
sg28
S'GLIBC_2.5'
p196
sg14
g15
sba(iFingerPrint.swirl
Dependency
p197
(dp198
g23
Nsg24
S'libc.so.6'
p199
sg26
g27
sg28
S'GLIBC_PRIVATE'
p200
sg14
g15
sbasg108
(lp201
sg110
S'/lib64/libc-2.5.so'
p202
sg26
g27
sba(iFingerPrint.swirl
SwirlFile
p203
(dp204
g10
(lp205
S'/lib64/libdl.so.2'
p206
asg12
(lp207
sg14
g15
sg16
S'87fde6c2e5580be87586ee8e74326f65'
p208
sg18
S'glibc-2.5-58.el5_6.4'
p209
sg19
(lp210
(iFingerPrint.swirl
Dependency
p211
(dp212
g23
Nsg24
S'ld-linux-x86-64.so.2'
p213
sg26
g27
sg28
g29
sg14
g15
sba(iFingerPrint.swirl
Dependency
p214
(dp215
g23
Nsg24
S'ld-linux-x86-64.so.2'
p216
sg26
g27
sg28
S'GLIBC_PRIVATE'
p217
sg14
g15
sba(iFingerPrint.swirl
Dependency
p218
(dp219
g23
Nsg24
S'libc.so.6'
p220
sg26
g27
sg28
g29
sg14
g15
sba(iFingerPrint.swirl
Dependency
p221
(dp222
g23
Nsg24
S'libc.so.6'
p223
sg26
g27
sg28
S'GLIBC_2.2.5'
p224
sg14
g15
sba(iFingerPrint.swirl
Dependency
p225
(dp226
g23
Nsg24
S'libc.so.6'
p227
sg26
g27
sg28
S'GLIBC_PRIVATE'
p228
sg14
g15
sbasg106
(lp229
(iFingerPrint.swirl
Dependency
p230
(dp231
g23
Nsg24
S'libdl.so.2'
p232
sg26
g27
sg28
g29
sg14
g15
sba(iFingerPrint.swirl
Dependency
p233
(dp234
g23
Nsg24
S'libdl.so.2'
p235
sg26
g27
sg28
S'GLIBC_2.2.5'
p236
sg14
g15
sba(iFingerPrint.swirl
Dependency
p237
(dp238
g23
Nsg24
S'libdl.so.2'
p239
sg26
g27
sg28
S'GLIBC_2.3.3'
p240
sg14
g15
sba(iFingerPrint.swirl
Dependency
p241
(dp242
g23
Nsg24
S'libdl.so.2'
p243
sg26
g27
sg28
S'GLIBC_2.3.4'
p244
sg14
g15
sba(iFingerPrint.swirl
Dependency
p245
(dp246
g23
Nsg24
S'libdl.so.2'
p247
sg26
g27
sg28
S'GLIBC_PRIVATE'
p248
sg14
g15
sbasg108
(lp249
sg110
S'/lib64/libdl-2.5.so'
p250
sg26
g27
sba(iFingerPrint.swirl
SwirlFile
p251
(dp252
g10
(lp253
S'/home/clem/XsedeTests/compile/gordon/namd/fftwbin/lib//libfftw3f.so.3'
p254
asg12
(lp255
sg14
g15
sg16
S'ae44a3ad5bce6bb2eb744514710a9bb2'
p256
sg18
Nsg19
(lp257
(iFingerPrint.swirl
Dependency
p258
(dp259
g23
Nsg24
S'ld-linux-x86-64.so.2'
p260
sg26
g27
sg28
g29
sg14
g15
sba(iFingerPrint.swirl
Dependency
p261
(dp262
g23
Nsg24
S'libc.so.6'
p263
sg26
g27
sg28
g29
sg14
g15
sba(iFingerPrint.swirl
Dependency
p264
(dp265
g23
Nsg24
S'libc.so.6'
p266
sg26
g27
sg28
S'GLIBC_2.2.5'
p267
sg14
g15
sba(iFingerPrint.swirl
Dependency
p268
(dp269
g23
Nsg24
S'libdl.so.2'
p270
sg26
g27
sg28
g29
sg14
g15
sba(iFingerPrint.swirl
Dependency
p271
(dp272
g23
Nsg24
S'libgcc_s.so.1'
p273
sg26
g27
sg28
g29
sg14
g15
sba(iFingerPrint.swirl
Dependency
p274
(dp275
g23
Nsg24
S'libimf.so'
p276
sg26
g27
sg28
g29
sg14
g15
sba(iFingerPrint.swirl
Dependency
p277
(dp278
g23
Nsg24
S'libintlc.so.5'
p279
sg26
g27
sg28
g29
sg14
g15
sba(iFingerPrint.swirl
Dependency
p280
(dp281
g23
Nsg24
S'libm.so.6'
p282
sg26
g27
sg28
g29
sg14
g15
sba(iFingerPrint.swirl
Dependency
p283
(dp284
g23
Nsg24
S'libsvml.so'
p285
sg26
g27
sg28
g29
sg14
g15
sbasg106
(lp286
(iFingerPrint.swirl
Dependency
p287
(dp288
g23
Nsg24
S'libfftw3f.so.3'
p289
sg26
g27
sg28
g29
sg14
g15
sbasg108
(lp290
sg110
S'/home/clem/XsedeTests/compile/gordon/namd/fftwbin/lib/libfftw3f.so.3.3.2'
p291
sg26
g27
sba(iFingerPrint.swirl
SwirlFile
p292
(dp293
g10
(lp294
S'/lib64/libgcc_s.so.1'
p295
asg12
(lp296
sg14
g15
sg16
S'7a9d1dabdcf7d11c050bd86e944f36ba'
p297
sg18
S'libgcc-4.1.2-50.el5'
p298
sg19
(lp299
(iFingerPrint.swirl
Dependency
p300
(dp301
g23
Nsg24
S'ld-linux-x86-64.so.2'
p302
sg26
g27
sg28
g29
sg14
g15
sba(iFingerPrint.swirl
Dependency
p303
(dp304
g23
Nsg24
S'libc.so.6'
p305
sg26
g27
sg28
g29
sg14
g15
sba(iFingerPrint.swirl
Dependency
p306
(dp307
g23
Nsg24
S'libc.so.6'
p308
sg26
g27
sg28
S'GLIBC_2.2.5'
p309
sg14
g15
sba(iFingerPrint.swirl
Dependency
p310
(dp311
g23
Nsg24
S'libc.so.6'
p312
sg26
g27
sg28
S'GLIBC_2.4'
p313
sg14
g15
sbasg106
(lp314
(iFingerPrint.swirl
Dependency
p315
(dp316
g23
Nsg24
S'libgcc_s.so.1'
p317
sg26
g27
sg28
g29
sg14
g15
sba(iFingerPrint.swirl
Dependency
p318
(dp319
g23
Nsg24
S'libgcc_s.so.1'
p320
sg26
g27
sg28
S'GCC_3.0'
p321
sg14
g15
sba(iFingerPrint.swirl
Dependency
p322
(dp323
g23
Nsg24
S'libgcc_s.so.1'
p324
sg26
g27
sg28
S'GCC_3.3.1'
p325
sg14
g15
sba(iFingerPrint.swirl
Dependency
p326
(dp327
g23
Nsg24
S'libgcc_s.so.1'
p328
sg26
g27
sg28
S'GCC_3.3'
p329
sg14
g15
sba(iFingerPrint.swirl
Dependency
p330
(dp331
g23
Nsg24
S'libgcc_s.so.1'
p332
sg26
g27
sg28
S'GCC_3.4.2'
p333
sg14
g15
sba(iFingerPrint.swirl
Dependency
p334
(dp335
g23
Nsg24
S'libgcc_s.so.1'
p336
sg26
g27
sg28
S'GCC_3.4.4'
p337
sg14
g15
sba(iFingerPrint.swirl
Dependency
p338
(dp339
g23
Nsg24
S'libgcc_s.so.1'
p340
sg26
g27
sg28
S'GCC_3.4'
p341
sg14
g15
sba(iFingerPrint.swirl
Dependency
p342
(dp343
g23
Nsg24
S'libgcc_s.so.1'
p344
sg26
g27
sg28
S'GCC_4.0.0'
p345
sg14
g15
sba(iFingerPrint.swirl
Dependency
p346
(dp347
g23
Nsg24
S'libgcc_s.so.1'
p348
sg26
g27
sg28
S'GCC_4.2.0'
p349
sg14
g15
sbasg108
(lp350
sg110
S'/lib64/libgcc_s-4.1.2-20080825.so.1'
p351
sg26
g27
sba(iFingerPrint.swirl
SwirlFile
p352
(dp353
g10
(lp354
sg12
(lp355
sg14
g15
sg16
S'fe20a9b2d55d85ceb8e147ec17695fec'
p356
sg18
S'intel-openmp-256-12.1-7'
p357
sg19
(lp358
(iFingerPrint.swirl
Dependency
p359
(dp360
g23
Nsg24
S'ld-linux-x86-64.so.2'
p361
sg26
g27
sg28
g29
sg14
g15
sba(iFingerPrint.swirl
Dependency
p362
(dp363
g23
Nsg24
S'libc.so.6'
p364
sg26
g27
sg28
g29
sg14
g15
sba(iFingerPrint.swirl
Dependency
p365
(dp366
g23
Nsg24
S'libc.so.6'
p367
sg26
g27
sg28
S'GLIBC_2.2.5'
p368
sg14
g15
sba(iFingerPrint.swirl
Dependency
p369
(dp370
g23
Nsg24
S'libintlc.so.5'
p371
sg26
g27
sg28
g29
sg14
g15
sbasg106
(lp372
(iFingerPrint.swirl
Dependency
p373
(dp374
g23
Nsg24
S'libimf.so'
p375
sg26
g27
sg28
g29
sg14
g15
sbasg108
(lp376
sg110
S'/opt/intel/composer_xe_2011_sp1.7.256/compiler/lib/intel64/libimf.so'
p377
sg26
g27
sba(iFingerPrint.swirl
SwirlFile
p378
(dp379
g10
(lp380
sg12
(lp381
sg14
g15
sg16
S'36032bdb404a9b22052fca9be45f0032'
p382
sg18
S'intel-openmp-256-12.1-7'
p383
sg19
(lp384
(iFingerPrint.swirl
Dependency
p385
(dp386
g23
Nsg24
S'ld-linux-x86-64.so.2'
p387
sg26
g27
sg28
g29
sg14
g15
sba(iFingerPrint.swirl
Dependency
p388
(dp389
g23
Nsg24
S'libc.so.6'
p390
sg26
g27
sg28
g29
sg14
g15
sba(iFingerPrint.swirl
Dependency
p391
(dp392
g23
Nsg24
S'libc.so.6'
p393
sg26
g27
sg28
S'GLIBC_2.2.5'
p394
sg14
g15
sbasg106
(lp395
(iFingerPrint.swirl
Dependency
p396
(dp397
g23
Nsg24
S'libintlc.so.5'
p398
sg26
g27
sg28
g29
sg14
g15
sbasg108
(lp399
sg110
S'/opt/intel/composer_xe_2011_sp1.7.256/compiler/lib/intel64/libintlc.so.5'
p400
sg26
g27
sba(iFingerPrint.swirl
SwirlFile
p401
(dp402
g10
(lp403
S'/lib64/libm.so.6'
p404
asg12
(lp405
sg14
g15
sg16
S'183a2f04a24da2db918ea503a8d401fe'
p406
sg18
S'glibc-2.5-58.el5_6.4'
p407
sg19
(lp408
(iFingerPrint.swirl
Dependency
p409
(dp410
g23
Nsg24
S'ld-linux-x86-64.so.2'
p411
sg26
g27
sg28
g29
sg14
g15
sba(iFingerPrint.swirl
Dependency
p412
(dp413
g23
Nsg24
S'libc.so.6'
p414
sg26
g27
sg28
g29
sg14
g15
sba(iFingerPrint.swirl
Dependency
p415
(dp416
g23
Nsg24
S'libc.so.6'
p417
sg26
g27
sg28
S'GLIBC_2.2.5'
p418
sg14
g15
sbasg106
(lp419
(iFingerPrint.swirl
Dependency
p420
(dp421
g23
Nsg24
S'libm.so.6'
p422
sg26
g27
sg28
g29
sg14
g15
sba(iFingerPrint.swirl
Dependency
p423
(dp424
g23
Nsg24
S'libm.so.6'
p425
sg26
g27
sg28
S'GLIBC_2.2.5'
p426
sg14
g15
sba(iFingerPrint.swirl
Dependency
p427
(dp428
g23
Nsg24
S'libm.so.6'
p429
sg26
g27
sg28
S'GLIBC_2.4'
p430
sg14
g15
sbasg108
(lp431
sg110
S'/lib64/libm-2.5.so'
p432
sg26
g27
sba(iFingerPrint.swirl
SwirlFile
p433
(dp434
g10
(lp435
sg12
(lp436
sg14
g15
sg16
S'b9303381d5cad3c0aa8644eae40e2b2a'
p437
sg18
S'intel-openmp-256-12.1-7'
p438
sg19
(lp439
(iFingerPrint.swirl
Dependency
p440
(dp441
g23
Nsg24
S'ld-linux-x86-64.so.2'
p442
sg26
g27
sg28
g29
sg14
g15
sba(iFingerPrint.swirl
Dependency
p443
(dp444
g23
Nsg24
S'libc.so.6'
p445
sg26
g27
sg28
g29
sg14
g15
sba(iFingerPrint.swirl
Dependency
p446
(dp447
g23
Nsg24
S'libintlc.so.5'
p448
sg26
g27
sg28
g29
sg14
g15
sbasg106
(lp449
(iFingerPrint.swirl
Dependency
p450
(dp451
g23
Nsg24
S'libsvml.so'
p452
sg26
g27
sg28
g29
sg14
g15
sbasg108
(lp453
sg110
S'/opt/intel/composer_xe_2011_sp1.7.256/compiler/lib/intel64/libsvml.so'
p454
sg26
g27
sba(iFingerPrint.swirl
SwirlFile
p455
(dp456
g10
(lp457
S'/usr/lib64/libibumad.so.3'
p458
asg12
(lp459
sg14
g15
sg16
S'b93051b085b3fa3839715471e2634462'
p460
sg18
S'libibumad-1.3.7-1'
p461
sg19
(lp462
(iFingerPrint.swirl
Dependency
p463
(dp464
g23
Nsg24
S'ld-linux-x86-64.so.2'
p465
sg26
g27
sg28
g29
sg14
g15
sba(iFingerPrint.swirl
Dependency
p466
(dp467
g23
Nsg24
S'libc.so.6'
p468
sg26
g27
sg28
g29
sg14
g15
sba(iFingerPrint.swirl
Dependency
p469
(dp470
g23
Nsg24
S'libc.so.6'
p471
sg26
g27
sg28
S'GLIBC_2.2.5'
p472
sg14
g15
sba(iFingerPrint.swirl
Dependency
p473
(dp474
g23
Nsg24
S'libc.so.6'
p475
sg26
g27
sg28
S'GLIBC_2.3.4'
p476
sg14
g15
sba(iFingerPrint.swirl
Dependency
p477
(dp478
g23
Nsg24
S'libc.so.6'
p479
sg26
g27
sg28
S'GLIBC_2.3'
p480
sg14
g15
sba(iFingerPrint.swirl
Dependency
p481
(dp482
g23
Nsg24
S'libc.so.6'
p483
sg26
g27
sg28
S'GLIBC_2.4'
p484
sg14
g15
sbasg106
(lp485
(iFingerPrint.swirl
Dependency
p486
(dp487
g23
Nsg24
S'libibumad.so.3'
p488
sg26
g27
sg28
g29
sg14
g15
sba(iFingerPrint.swirl
Dependency
p489
(dp490
g23
Nsg24
S'libibumad.so.3'
p491
sg26
g27
sg28
S'IBUMAD_1.0'
p492
sg14
g15
sbasg108
(lp493
sg110
S'/usr/lib64/libibumad.so.3.0.2'
p494
sg26
g27
sba(iFingerPrint.swirl
SwirlFile
p495
(dp496
g10
(lp497
S'/usr/lib64/libibverbs.so.1'
p498
asg12
(lp499
sg14
g15
sg16
S'dab5699d5e375fff7b5d1dec0e179283'
p500
sg18
S'libibverbs-1.1.4-1.23.g6ccf63e'
p501
sg19
(lp502
(iFingerPrint.swirl
Dependency
p503
(dp504
g23
Nsg24
S'ld-linux-x86-64.so.2'
p505
sg26
g27
sg28
g29
sg14
g15
sba(iFingerPrint.swirl
Dependency
p506
(dp507
g23
Nsg24
S'libc.so.6'
p508
sg26
g27
sg28
g29
sg14
g15
sba(iFingerPrint.swirl
Dependency
p509
(dp510
g23
Nsg24
S'libc.so.6'
p511
sg26
g27
sg28
S'GLIBC_2.2.5'
p512
sg14
g15
sba(iFingerPrint.swirl
Dependency
p513
(dp514
g23
Nsg24
S'libc.so.6'
p515
sg26
g27
sg28
S'GLIBC_2.3.4'
p516
sg14
g15
sba(iFingerPrint.swirl
Dependency
p517
(dp518
g23
Nsg24
S'libc.so.6'
p519
sg26
g27
sg28
S'GLIBC_2.4'
p520
sg14
g15
sba(iFingerPrint.swirl
Dependency
p521
(dp522
g23
Nsg24
S'libdl.so.2'
p523
sg26
g27
sg28
g29
sg14
g15
sba(iFingerPrint.swirl
Dependency
p524
(dp525
g23
Nsg24
S'libdl.so.2'
p526
sg26
g27
sg28
S'GLIBC_2.2.5'
p527
sg14
g15
sba(iFingerPrint.swirl
Dependency
p528
(dp529
g23
Nsg24
S'libpthread.so.0'
p530
sg26
g27
sg28
g29
sg14
g15
sba(iFingerPrint.swirl
Dependency
p531
(dp532
g23
Nsg24
S'libpthread.so.0'
p533
sg26
g27
sg28
S'GLIBC_2.2.5'
p534
sg14
g15
sba(iFingerPrint.swirl
Dependency
p535
(dp536
g23
Nsg24
S'libpthread.so.0'
p537
sg26
g27
sg28
S'GLIBC_2.3.2'
p538
sg14
g15
sbasg106
(lp539
(iFingerPrint.swirl
Dependency
p540
(dp541
g23
Nsg24
S'libibverbs.so.1'
p542
sg26
g27
sg28
g29
sg14
g15
sba(iFingerPrint.swirl
Dependency
p543
(dp544
g23
Nsg24
S'libibverbs.so.1'
p545
sg26
g27
sg28
S'IBVERBS_1.0'
p546
sg14
g15
sba(iFingerPrint.swirl
Dependency
p547
(dp548
g23
Nsg24
S'libibverbs.so.1'
p549
sg26
g27
sg28
S'IBVERBS_1.1'
p550
sg14
g15
sbasg108
(lp551
sg110
S'/usr/lib64/libibverbs.so.1.0.0'
p552
sg26
g27
sba(iFingerPrint.swirl
SwirlFile
p553
(dp554
g10
(lp555
S'/lib64/libpthread.so.0'
p556
asg12
(lp557
sg14
g15
sg16
S'f886a197c76e1c1c6da82634fb6b6f05'
p558
sg18
S'glibc-2.5-58.el5_6.4'
p559
sg19
(lp560
(iFingerPrint.swirl
Dependency
p561
(dp562
g23
Nsg24
S'ld-linux-x86-64.so.2'
p563
sg26
g27
sg28
g29
sg14
g15
sba(iFingerPrint.swirl
Dependency
p564
(dp565
g23
Nsg24
S'ld-linux-x86-64.so.2'
p566
sg26
g27
sg28
S'GLIBC_2.2.5'
p567
sg14
g15
sba(iFingerPrint.swirl
Dependency
p568
(dp569
g23
Nsg24
S'ld-linux-x86-64.so.2'
p570
sg26
g27
sg28
S'GLIBC_2.3'
p571
sg14
g15
sba(iFingerPrint.swirl
Dependency
p572
(dp573
g23
Nsg24
S'ld-linux-x86-64.so.2'
p574
sg26
g27
sg28
S'GLIBC_PRIVATE'
p575
sg14
g15
sba(iFingerPrint.swirl
Dependency
p576
(dp577
g23
Nsg24
S'libc.so.6'
p578
sg26
g27
sg28
g29
sg14
g15
sba(iFingerPrint.swirl
Dependency
p579
(dp580
g23
Nsg24
S'libc.so.6'
p581
sg26
g27
sg28
S'GLIBC_2.2.5'
p582
sg14
g15
sba(iFingerPrint.swirl
Dependency
p583
(dp584
g23
Nsg24
S'libc.so.6'
p585
sg26
g27
sg28
S'GLIBC_2.3.2'
p586
sg14
g15
sba(iFingerPrint.swirl
Dependency
p587
(dp588
g23
Nsg24
S'libc.so.6'
p589
sg26
g27
sg28
S'GLIBC_PRIVATE'
p590
sg14
g15
sbasg106
(lp591
(iFingerPrint.swirl
Dependency
p592
(dp593
g23
Nsg24
S'libpthread.so.0'
p594
sg26
g27
sg28
g29
sg14
g15
sba(iFingerPrint.swirl
Dependency
p595
(dp596
g23
Nsg24
S'libpthread.so.0'
p597
sg26
g27
sg28
S'GLIBC_2.2.5'
p598
sg14
g15
sba(iFingerPrint.swirl
Dependency
p599
(dp600
g23
Nsg24
S'libpthread.so.0'
p601
sg26
g27
sg28
S'GLIBC_2.2.6'
p602
sg14
g15
sba(iFingerPrint.swirl
Dependency
p603
(dp604
g23
Nsg24
S'libpthread.so.0'
p605
sg26
g27
sg28
S'GLIBC_2.3.2'
p606
sg14
g15
sba(iFingerPrint.swirl
Dependency
p607
(dp608
g23
Nsg24
S'libpthread.so.0'
p609
sg26
g27
sg28
S'GLIBC_2.3.3'
p610
sg14
g15
sba(iFingerPrint.swirl
Dependency
p611
(dp612
g23
Nsg24
S'libpthread.so.0'
p613
sg26
g27
sg28
S'GLIBC_2.3.4'
p614
sg14
g15
sba(iFingerPrint.swirl
Dependency
p615
(dp616
g23
Nsg24
S'libpthread.so.0'
p617
sg26
g27
sg28
S'GLIBC_2.4'
p618
sg14
g15
sba(iFingerPrint.swirl
Dependency
p619
(dp620
g23
Nsg24
S'libpthread.so.0'
p621
sg26
g27
sg28
S'GLIBC_PRIVATE'
p622
sg14
g15
sbasg108
(lp623
sg110
S'/lib64/libpthread-2.5.so'
p624
sg26
g27
sba(iFingerPrint.swirl
SwirlFile
p625
(dp626
g10
(lp627
S'/opt/mvapich2/intel/ib/lib/liblimic2.so.0'
p628
asg12
(lp629
sg14
g15
sg16
S'9b961ab00c5daaa7add8a8e913cd9ece'
p630
sg18
S'mvapich2_intel_ib-1.8a1p1-1'
p631
sg19
(lp632
(iFingerPrint.swirl
Dependency
p633
(dp634
g23
Nsg24
S'ld-linux-x86-64.so.2'
p635
sg26
g27
sg28
g29
sg14
g15
sba(iFingerPrint.swirl
Dependency
p636
(dp637
g23
Nsg24
S'libc.so.6'
p638
sg26
g27
sg28
g29
sg14
g15
sba(iFingerPrint.swirl
Dependency
p639
(dp640
g23
Nsg24
S'libc.so.6'
p641
sg26
g27
sg28
S'GLIBC_2.2.5'
p642
sg14
g15
sbasg106
(lp643
(iFingerPrint.swirl
Dependency
p644
(dp645
g23
Nsg24
S'liblimic2.so.0'
p646
sg26
g27
sg28
g29
sg14
g15
sbasg108
(lp647
sg110
S'/opt/mvapich2/intel/ib/lib/liblimic2.so.0.0.0'
p648
sg26
g27
sba(iFingerPrint.swirl
SwirlFile
p649
(dp650
g10
(lp651
S'/opt/mvapich2/intel/ib/lib/libmpichcxx.so.3'
p652
asg12
(lp653
sg14
g15
sg16
S'45479e5eea36635c3ef5c3e208cdc5f8'
p654
sg18
S'mvapich2_intel_ib-1.8a1p1-1'
p655
sg19
(lp656
(iFingerPrint.swirl
Dependency
p657
(dp658
g23
Nsg24
S'ld-linux-x86-64.so.2'
p659
sg26
g27
sg28
g29
sg14
g15
sba(iFingerPrint.swirl
Dependency
p660
(dp661
g23
Nsg24
S'libc.so.6'
p662
sg26
g27
sg28
g29
sg14
g15
sba(iFingerPrint.swirl
Dependency
p663
(dp664
g23
Nsg24
S'libc.so.6'
p665
sg26
g27
sg28
S'GLIBC_2.2.5'
p666
sg14
g15
sba(iFingerPrint.swirl
Dependency
p667
(dp668
g23
Nsg24
S'libdl.so.2'
p669
sg26
g27
sg28
g29
sg14
g15
sba(iFingerPrint.swirl
Dependency
p670
(dp671
g23
Nsg24
S'libgcc_s.so.1'
p672
sg26
g27
sg28
g29
sg14
g15
sba(iFingerPrint.swirl
Dependency
p673
(dp674
g23
Nsg24
S'libgcc_s.so.1'
p675
sg26
g27
sg28
S'GCC_3.0'
p676
sg14
g15
sba(iFingerPrint.swirl
Dependency
p677
(dp678
g23
Nsg24
S'libibumad.so.3'
p679
sg26
g27
sg28
g29
sg14
g15
sba(iFingerPrint.swirl
Dependency
p680
(dp681
g23
Nsg24
S'libibverbs.so.1'
p682
sg26
g27
sg28
g29
sg14
g15
sba(iFingerPrint.swirl
Dependency
p683
(dp684
g23
Nsg24
S'libimf.so'
p685
sg26
g27
sg28
g29
sg14
g15
sba(iFingerPrint.swirl
Dependency
p686
(dp687
g23
Nsg24
S'libintlc.so.5'
p688
sg26
g27
sg28
g29
sg14
g15
sba(iFingerPrint.swirl
Dependency
p689
(dp690
g23
Nsg24
S'liblimic2.so.0'
p691
sg26
g27
sg28
g29
sg14
g15
sba(iFingerPrint.swirl
Dependency
p692
(dp693
g23
Nsg24
S'libmpich.so.3'
p694
sg26
g27
sg28
g29
sg14
g15
sba(iFingerPrint.swirl
Dependency
p695
(dp696
g23
Nsg24
S'libm.so.6'
p697
sg26
g27
sg28
g29
sg14
g15
sba(iFingerPrint.swirl
Dependency
p698
(dp699
g23
Nsg24
S'libpthread.so.0'
p700
sg26
g27
sg28
g29
sg14
g15
sba(iFingerPrint.swirl
Dependency
p701
(dp702
g23
Nsg24
S'librdmacm.so.1'
p703
sg26
g27
sg28
g29
sg14
g15
sba(iFingerPrint.swirl
Dependency
p704
(dp705
g23
Nsg24
S'librt.so.1'
p706
sg26
g27
sg28
g29
sg14
g15
sba(iFingerPrint.swirl
Dependency
p707
(dp708
g23
Nsg24
S'libstdc++.so.6'
p709
sg26
g27
sg28
g29
sg14
g15
sba(iFingerPrint.swirl
Dependency
p710
(dp711
g23
Nsg24
S'libstdc++.so.6'
p712
sg26
g27
sg28
S'CXXABI_1.3'
p713
sg14
g15
sba(iFingerPrint.swirl
Dependency
p714
(dp715
g23
Nsg24
S'libstdc++.so.6'
p716
sg26
g27
sg28
S'GLIBCXX_3.4'
p717
sg14
g15
sba(iFingerPrint.swirl
Dependency
p718
(dp719
g23
Nsg24
S'libsvml.so'
p720
sg26
g27
sg28
g29
sg14
g15
sbasg106
(lp721
(iFingerPrint.swirl
Dependency
p722
(dp723
g23
Nsg24
S'libmpichcxx.so.3'
p724
sg26
g27
sg28
g29
sg14
g15
sbasg108
(lp725
sg110
S'/opt/mvapich2/intel/ib/lib/libmpichcxx.so.3.3'
p726
sg26
g27
sba(iFingerPrint.swirl
SwirlFile
p727
(dp728
g10
(lp729
S'/opt/mvapich2/intel/ib/lib/libmpich.so.3'
p730
asg12
(lp731
sg14
g15
sg16
S'25b6f49e6cc0a70acecdc7f91f6326a2'
p732
sg18
S'mvapich2_intel_ib-1.8a1p1-1'
p733
sg19
(lp734
(iFingerPrint.swirl
Dependency
p735
(dp736
g23
Nsg24
S'ld-linux-x86-64.so.2'
p737
sg26
g27
sg28
g29
sg14
g15
sba(iFingerPrint.swirl
Dependency
p738
(dp739
g23
Nsg24
S'ld-linux-x86-64.so.2'
p740
sg26
g27
sg28
S'GLIBC_2.3'
p741
sg14
g15
sba(iFingerPrint.swirl
Dependency
p742
(dp743
g23
Nsg24
S'libc.so.6'
p744
sg26
g27
sg28
g29
sg14
g15
sba(iFingerPrint.swirl
Dependency
p745
(dp746
g23
Nsg24
S'libc.so.6'
p747
sg26
g27
sg28
S'GLIBC_2.2.5'
p748
sg14
g15
sba(iFingerPrint.swirl
Dependency
p749
(dp750
g23
Nsg24
S'libc.so.6'
p751
sg26
g27
sg28
S'GLIBC_2.3.2'
p752
sg14
g15
sba(iFingerPrint.swirl
Dependency
p753
(dp754
g23
Nsg24
S'libc.so.6'
p755
sg26
g27
sg28
S'GLIBC_2.3.3'
p756
sg14
g15
sba(iFingerPrint.swirl
Dependency
p757
(dp758
g23
Nsg24
S'libc.so.6'
p759
sg26
g27
sg28
S'GLIBC_2.3.4'
p760
sg14
g15
sba(iFingerPrint.swirl
Dependency
p761
(dp762
g23
Nsg24
S'libc.so.6'
p763
sg26
g27
sg28
S'GLIBC_2.3'
p764
sg14
g15
sba(iFingerPrint.swirl
Dependency
p765
(dp766
g23
Nsg24
S'libc.so.6'
p767
sg26
g27
sg28
S'GLIBC_2.4'
p768
sg14
g15
sba(iFingerPrint.swirl
Dependency
p769
(dp770
g23
Nsg24
S'libdl.so.2'
p771
sg26
g27
sg28
g29
sg14
g15
sba(iFingerPrint.swirl
Dependency
p772
(dp773
g23
Nsg24
S'libgcc_s.so.1'
p774
sg26
g27
sg28
g29
sg14
g15
sba(iFingerPrint.swirl
Dependency
p775
(dp776
g23
Nsg24
S'libibumad.so.3'
p777
sg26
g27
sg28
g29
sg14
g15
sba(iFingerPrint.swirl
Dependency
p778
(dp779
g23
Nsg24
S'libibumad.so.3'
p780
sg26
g27
sg28
S'IBUMAD_1.0'
p781
sg14
g15
sba(iFingerPrint.swirl
Dependency
p782
(dp783
g23
Nsg24
S'libibverbs.so.1'
p784
sg26
g27
sg28
g29
sg14
g15
sba(iFingerPrint.swirl
Dependency
p785
(dp786
g23
Nsg24
S'libibverbs.so.1'
p787
sg26
g27
sg28
S'IBVERBS_1.0'
p788
sg14
g15
sba(iFingerPrint.swirl
Dependency
p789
(dp790
g23
Nsg24
S'libibverbs.so.1'
p791
sg26
g27
sg28
S'IBVERBS_1.1'
p792
sg14
g15
sba(iFingerPrint.swirl
Dependency
p793
(dp794
g23
Nsg24
S'libimf.so'
p795
sg26
g27
sg28
g29
sg14
g15
sba(iFingerPrint.swirl
Dependency
p796
(dp797
g23
Nsg24
S'libintlc.so.5'
p798
sg26
g27
sg28
g29
sg14
g15
sba(iFingerPrint.swirl
Dependency
p799
(dp800
g23
Nsg24
S'liblimic2.so.0'
p801
sg26
g27
sg28
g29
sg14
g15
sba(iFingerPrint.swirl
Dependency
p802
(dp803
g23
Nsg24
S'libm.so.6'
p804
sg26
g27
sg28
g29
sg14
g15
sba(iFingerPrint.swirl
Dependency
p805
(dp806
g23
Nsg24
S'libpthread.so.0'
p807
sg26
g27
sg28
g29
sg14
g15
sba(iFingerPrint.swirl
Dependency
p808
(dp809
g23
Nsg24
S'libpthread.so.0'
p810
sg26
g27
sg28
S'GLIBC_2.2.5'
p811
sg14
g15
sba(iFingerPrint.swirl
Dependency
p812
(dp813
g23
Nsg24
S'libpthread.so.0'
p814
sg26
g27
sg28
S'GLIBC_2.3.2'
p815
sg14
g15
sba(iFingerPrint.swirl
Dependency
p816
(dp817
g23
Nsg24
S'libpthread.so.0'
p818
sg26
g27
sg28
S'GLIBC_2.3.4'
p819
sg14
g15
sba(iFingerPrint.swirl
Dependency
p820
(dp821
g23
Nsg24
S'librdmacm.so.1'
p822
sg26
g27
sg28
g29
sg14
g15
sba(iFingerPrint.swirl
Dependency
p823
(dp824
g23
Nsg24
S'librdmacm.so.1'
p825
sg26
g27
sg28
S'RDMACM_1.0'
p826
sg14
g15
sba(iFingerPrint.swirl
Dependency
p827
(dp828
g23
Nsg24
S'librt.so.1'
p829
sg26
g27
sg28
g29
sg14
g15
sba(iFingerPrint.swirl
Dependency
p830
(dp831
g23
Nsg24
S'librt.so.1'
p832
sg26
g27
sg28
S'GLIBC_2.2.5'
p833
sg14
g15
sba(iFingerPrint.swirl
Dependency
p834
(dp835
g23
Nsg24
S'libsvml.so'
p836
sg26
g27
sg28
g29
sg14
g15
sbasg106
(lp837
(iFingerPrint.swirl
Dependency
p838
(dp839
g23
Nsg24
S'libmpich.so.3'
p840
sg26
g27
sg28
g29
sg14
g15
sbasg108
(lp841
sg110
S'/opt/mvapich2/intel/ib/lib/libmpich.so.3.3'
p842
sg26
g27
sba(iFingerPrint.swirl
SwirlFile
p843
(dp844
g10
(lp845
S'/usr/lib64/librdmacm.so.1'
p846
asg12
(lp847
sg14
g15
sg16
S'83e1e8c2259a7e950f9812a011735beb'
p848
sg18
S'librdmacm-1.0.14.1-1'
p849
sg19
(lp850
(iFingerPrint.swirl
Dependency
p851
(dp852
g23
Nsg24
S'ld-linux-x86-64.so.2'
p853
sg26
g27
sg28
g29
sg14
g15
sba(iFingerPrint.swirl
Dependency
p854
(dp855
g23
Nsg24
S'libc.so.6'
p856
sg26
g27
sg28
g29
sg14
g15
sba(iFingerPrint.swirl
Dependency
p857
(dp858
g23
Nsg24
S'libc.so.6'
p859
sg26
g27
sg28
S'GLIBC_2.2.5'
p860
sg14
g15
sba(iFingerPrint.swirl
Dependency
p861
(dp862
g23
Nsg24
S'libc.so.6'
p863
sg26
g27
sg28
S'GLIBC_2.3.2'
p864
sg14
g15
sba(iFingerPrint.swirl
Dependency
p865
(dp866
g23
Nsg24
S'libc.so.6'
p867
sg26
g27
sg28
S'GLIBC_2.3.4'
p868
sg14
g15
sba(iFingerPrint.swirl
Dependency
p869
(dp870
g23
Nsg24
S'libc.so.6'
p871
sg26
g27
sg28
S'GLIBC_2.4'
p872
sg14
g15
sba(iFingerPrint.swirl
Dependency
p873
(dp874
g23
Nsg24
S'libibverbs.so.1'
p875
sg26
g27
sg28
g29
sg14
g15
sba(iFingerPrint.swirl
Dependency
p876
(dp877
g23
Nsg24
S'libibverbs.so.1'
p878
sg26
g27
sg28
S'IBVERBS_1.0'
p879
sg14
g15
sba(iFingerPrint.swirl
Dependency
p880
(dp881
g23
Nsg24
S'libibverbs.so.1'
p882
sg26
g27
sg28
S'IBVERBS_1.1'
p883
sg14
g15
sbasg106
(lp884
(iFingerPrint.swirl
Dependency
p885
(dp886
g23
Nsg24
S'librdmacm.so.1'
p887
sg26
g27
sg28
g29
sg14
g15
sba(iFingerPrint.swirl
Dependency
p888
(dp889
g23
Nsg24
S'librdmacm.so.1'
p890
sg26
g27
sg28
S'RDMACM_1.0'
p891
sg14
g15
sbasg108
(lp892
sg110
S'/usr/lib64/librdmacm.so.1.0.0'
p893
sg26
g27
sba(iFingerPrint.swirl
SwirlFile
p894
(dp895
g10
(lp896
S'/lib64/librt.so.1'
p897
asg12
(lp898
sg14
g15
sg16
S'75972dde6297705248f6a8a164cd556f'
p899
sg18
S'glibc-2.5-58.el5_6.4'
p900
sg19
(lp901
(iFingerPrint.swirl
Dependency
p902
(dp903
g23
Nsg24
S'ld-linux-x86-64.so.2'
p904
sg26
g27
sg28
g29
sg14
g15
sba(iFingerPrint.swirl
Dependency
p905
(dp906
g23
Nsg24
S'ld-linux-x86-64.so.2'
p907
sg26
g27
sg28
S'GLIBC_PRIVATE'
p908
sg14
g15
sba(iFingerPrint.swirl
Dependency
p909
(dp910
g23
Nsg24
S'libc.so.6'
p911
sg26
g27
sg28
g29
sg14
g15
sba(iFingerPrint.swirl
Dependency
p912
(dp913
g23
Nsg24
S'libc.so.6'
p914
sg26
g27
sg28
S'GLIBC_2.2.5'
p915
sg14
g15
sba(iFingerPrint.swirl
Dependency
p916
(dp917
g23
Nsg24
S'libc.so.6'
p918
sg26
g27
sg28
S'GLIBC_2.3.2'
p919
sg14
g15
sba(iFingerPrint.swirl
Dependency
p920
(dp921
g23
Nsg24
S'libc.so.6'
p922
sg26
g27
sg28
S'GLIBC_PRIVATE'
p923
sg14
g15
sba(iFingerPrint.swirl
Dependency
p924
(dp925
g23
Nsg24
S'libpthread.so.0'
p926
sg26
g27
sg28
g29
sg14
g15
sba(iFingerPrint.swirl
Dependency
p927
(dp928
g23
Nsg24
S'libpthread.so.0'
p929
sg26
g27
sg28
S'GLIBC_2.2.5'
p930
sg14
g15
sba(iFingerPrint.swirl
Dependency
p931
(dp932
g23
Nsg24
S'libpthread.so.0'
p933
sg26
g27
sg28
S'GLIBC_PRIVATE'
p934
sg14
g15
sbasg106
(lp935
(iFingerPrint.swirl
Dependency
p936
(dp937
g23
Nsg24
S'librt.so.1'
p938
sg26
g27
sg28
g29
sg14
g15
sba(iFingerPrint.swirl
Dependency
p939
(dp940
g23
Nsg24
S'librt.so.1'
p941
sg26
g27
sg28
S'GLIBC_2.2.5'
p942
sg14
g15
sba(iFingerPrint.swirl
Dependency
p943
(dp944
g23
Nsg24
S'librt.so.1'
p945
sg26
g27
sg28
S'GLIBC_2.3.3'
p946
sg14
g15
sba(iFingerPrint.swirl
Dependency
p947
(dp948
g23
Nsg24
S'librt.so.1'
p949
sg26
g27
sg28
S'GLIBC_2.3.4'
p950
sg14
g15
sba(iFingerPrint.swirl
Dependency
p951
(dp952
g23
Nsg24
S'librt.so.1'
p953
sg26
g27
sg28
S'GLIBC_2.4'
p954
sg14
g15
sbasg108
(lp955
sg110
S'/lib64/librt-2.5.so'
p956
sg26
g27
sba(iFingerPrint.swirl
SwirlFile
p957
(dp958
g10
(lp959
S'/usr/lib64/libstdc++.so.6'
p960
asg12
(lp961
sg14
g15
sg16
S'c0e16491640b801fe444a8a568fe7ed8'
p962
sg18
S'libstdc++-4.1.2-50.el5'
p963
sg19
(lp964
(iFingerPrint.swirl
Dependency
p965
(dp966
g23
Nsg24
S'ld-linux-x86-64.so.2'
p967
sg26
g27
sg28
g29
sg14
g15
sba(iFingerPrint.swirl
Dependency
p968
(dp969
g23
Nsg24
S'ld-linux-x86-64.so.2'
p970
sg26
g27
sg28
S'GLIBC_2.3'
p971
sg14
g15
sba(iFingerPrint.swirl
Dependency
p972
(dp973
g23
Nsg24
S'libc.so.6'
p974
sg26
g27
sg28
g29
sg14
g15
sba(iFingerPrint.swirl
Dependency
p975
(dp976
g23
Nsg24
S'libc.so.6'
p977
sg26
g27
sg28
S'GLIBC_2.2.5'
p978
sg14
g15
sba(iFingerPrint.swirl
Dependency
p979
(dp980
g23
Nsg24
S'libc.so.6'
p981
sg26
g27
sg28
S'GLIBC_2.3.2'
p982
sg14
g15
sba(iFingerPrint.swirl
Dependency
p983
(dp984
g23
Nsg24
S'libc.so.6'
p985
sg26
g27
sg28
S'GLIBC_2.3'
p986
sg14
g15
sba(iFingerPrint.swirl
Dependency
p987
(dp988
g23
Nsg24
S'libc.so.6'
p989
sg26
g27
sg28
S'GLIBC_2.4'
p990
sg14
g15
sba(iFingerPrint.swirl
Dependency
p991
(dp992
g23
Nsg24
S'libgcc_s.so.1'
p993
sg26
g27
sg28
g29
sg14
g15
sba(iFingerPrint.swirl
Dependency
p994
(dp995
g23
Nsg24
S'libgcc_s.so.1'
p996
sg26
g27
sg28
S'GCC_3.0'
p997
sg14
g15
sba(iFingerPrint.swirl
Dependency
p998
(dp999
g23
Nsg24
S'libgcc_s.so.1'
p1000
sg26
g27
sg28
S'GCC_3.3'
p1001
sg14
g15
sba(iFingerPrint.swirl
Dependency
p1002
(dp1003
g23
Nsg24
S'libgcc_s.so.1'
p1004
sg26
g27
sg28
S'GCC_4.2.0'
p1005
sg14
g15
sba(iFingerPrint.swirl
Dependency
p1006
(dp1007
g23
Nsg24
S'libm.so.6'
p1008
sg26
g27
sg28
g29
sg14
g15
sbasg106
(lp1009
(iFingerPrint.swirl
Dependency
p1010
(dp1011
g23
Nsg24
S'libstdc++.so.6'
p1012
sg26
g27
sg28
g29
sg14
g15
sba(iFingerPrint.swirl
Dependency
p1013
(dp1014
g23
Nsg24
S'libstdc++.so.6'
p1015
sg26
g27
sg28
S'CXXABI_1.3.1'
p1016
sg14
g15
sba(iFingerPrint.swirl
Dependency
p1017
(dp1018
g23
Nsg24
S'libstdc++.so.6'
p1019
sg26
g27
sg28
S'CXXABI_1.3'
p1020
sg14
g15
sba(iFingerPrint.swirl
Dependency
p1021
(dp1022
g23
Nsg24
S'libstdc++.so.6'
p1023
sg26
g27
sg28
S'GLIBCXX_3.4.1'
p1024
sg14
g15
sba(iFingerPrint.swirl
Dependency
p1025
(dp1026
g23
Nsg24
S'libstdc++.so.6'
p1027
sg26
g27
sg28
S'GLIBCXX_3.4.2'
p1028
sg14
g15
sba(iFingerPrint.swirl
Dependency
p1029
(dp1030
g23
Nsg24
S'libstdc++.so.6'
p1031
sg26
g27
sg28
S'GLIBCXX_3.4.3'
p1032
sg14
g15
sba(iFingerPrint.swirl
Dependency
p1033
(dp1034
g23
Nsg24
S'libstdc++.so.6'
p1035
sg26
g27
sg28
S'GLIBCXX_3.4.4'
p1036
sg14
g15
sba(iFingerPrint.swirl
Dependency
p1037
(dp1038
g23
Nsg24
S'libstdc++.so.6'
p1039
sg26
g27
sg28
S'GLIBCXX_3.4.5'
p1040
sg14
g15
sba(iFingerPrint.swirl
Dependency
p1041
(dp1042
g23
Nsg24
S'libstdc++.so.6'
p1043
sg26
g27
sg28
S'GLIBCXX_3.4'
p1044
sg14
g15
sba(iFingerPrint.swirl
Dependency
p1045
(dp1046
g23
Nsg24
S'libstdc++.so.6'
p1047
sg26
g27
sg28
S'GLIBCXX_3.4.6'
p1048
sg14
g15
sba(iFingerPrint.swirl
Dependency
p1049
(dp1050
g23
Nsg24
S'libstdc++.so.6'
p1051
sg26
g27
sg28
S'GLIBCXX_3.4.7'
p1052
sg14
g15
sba(iFingerPrint.swirl
Dependency
p1053
(dp1054
g23
Nsg24
S'libstdc++.so.6'
p1055
sg26
g27
sg28
S'GLIBCXX_3.4.8'
p1056
sg14
g15
sbasg108
(lp1057
sg110
S'/usr/lib64/libstdc++.so.6.0.8'
p1058
sg26
g27
sba(iFingerPrint.swirl
SwirlFile
p1059
(dp1060
g10
(lp1061
S'/opt/mvapich2/intel/ib/lib/libmpl.so.1'
p1062
asg12
(lp1063
sg14
g15
sg16
S'80abe8ac293f556355470bc38295234a'
p1064
sg18
S'mvapich2_intel_ib-1.8a1p1-1'
p1065
sg19
(lp1066
(iFingerPrint.swirl
Dependency
p1067
(dp1068
g23
Nsg24
S'ld-linux-x86-64.so.2'
p1069
sg26
g27
sg28
g29
sg14
g15
sba(iFingerPrint.swirl
Dependency
p1070
(dp1071
g23
Nsg24
S'libc.so.6'
p1072
sg26
g27
sg28
g29
sg14
g15
sba(iFingerPrint.swirl
Dependency
p1073
(dp1074
g23
Nsg24
S'libc.so.6'
p1075
sg26
g27
sg28
S'GLIBC_2.2.5'
p1076
sg14
g15
sba(iFingerPrint.swirl
Dependency
p1077
(dp1078
g23
Nsg24
S'libc.so.6'
p1079
sg26
g27
sg28
S'GLIBC_2.3'
p1080
sg14
g15
sba(iFingerPrint.swirl
Dependency
p1081
(dp1082
g23
Nsg24
S'libdl.so.2'
p1083
sg26
g27
sg28
g29
sg14
g15
sba(iFingerPrint.swirl
Dependency
p1084
(dp1085
g23
Nsg24
S'libgcc_s.so.1'
p1086
sg26
g27
sg28
g29
sg14
g15
sba(iFingerPrint.swirl
Dependency
p1087
(dp1088
g23
Nsg24
S'libimf.so'
p1089
sg26
g27
sg28
g29
sg14
g15
sba(iFingerPrint.swirl
Dependency
p1090
(dp1091
g23
Nsg24
S'libintlc.so.5'
p1092
sg26
g27
sg28
g29
sg14
g15
sba(iFingerPrint.swirl
Dependency
p1093
(dp1094
g23
Nsg24
S'libm.so.6'
p1095
sg26
g27
sg28
g29
sg14
g15
sba(iFingerPrint.swirl
Dependency
p1096
(dp1097
g23
Nsg24
S'libsvml.so'
p1098
sg26
g27
sg28
g29
sg14
g15
sbasg106
(lp1099
(iFingerPrint.swirl
Dependency
p1100
(dp1101
g23
Nsg24
S'libmpl.so.1'
p1102
sg26
g27
sg28
g29
sg14
g15
sbasg108
(lp1103
sg110
S'/opt/mvapich2/intel/ib/lib/libmpl.so.1.1.0'
p1104
sg26
g27
sba(iFingerPrint.swirl
SwirlFile
p1105
(dp1106
g10
(lp1107
S'/opt/mvapich2/intel/ib/lib/libopa.so.1'
p1108
asg12
(lp1109
sg14
g15
sg16
S'440b992905efd1d84fe4fe114d6531e2'
p1110
sg18
S'mvapich2_intel_ib-1.8a1p1-1'
p1111
sg19
(lp1112
(iFingerPrint.swirl
Dependency
p1113
(dp1114
g23
Nsg24
S'ld-linux-x86-64.so.2'
p1115
sg26
g27
sg28
g29
sg14
g15
sba(iFingerPrint.swirl
Dependency
p1116
(dp1117
g23
Nsg24
S'libc.so.6'
p1118
sg26
g27
sg28
g29
sg14
g15
sba(iFingerPrint.swirl
Dependency
p1119
(dp1120
g23
Nsg24
S'libc.so.6'
p1121
sg26
g27
sg28
S'GLIBC_2.2.5'
p1122
sg14
g15
sba(iFingerPrint.swirl
Dependency
p1123
(dp1124
g23
Nsg24
S'libdl.so.2'
p1125
sg26
g27
sg28
g29
sg14
g15
sba(iFingerPrint.swirl
Dependency
p1126
(dp1127
g23
Nsg24
S'libgcc_s.so.1'
p1128
sg26
g27
sg28
g29
sg14
g15
sba(iFingerPrint.swirl
Dependency
p1129
(dp1130
g23
Nsg24
S'libimf.so'
p1131
sg26
g27
sg28
g29
sg14
g15
sba(iFingerPrint.swirl
Dependency
p1132
(dp1133
g23
Nsg24
S'libintlc.so.5'
p1134
sg26
g27
sg28
g29
sg14
g15
sba(iFingerPrint.swirl
Dependency
p1135
(dp1136
g23
Nsg24
S'libm.so.6'
p1137
sg26
g27
sg28
g29
sg14
g15
sba(iFingerPrint.swirl
Dependency
p1138
(dp1139
g23
Nsg24
S'libpthread.so.0'
p1140
sg26
g27
sg28
g29
sg14
g15
sba(iFingerPrint.swirl
Dependency
p1141
(dp1142
g23
Nsg24
S'libpthread.so.0'
p1143
sg26
g27
sg28
S'GLIBC_2.2.5'
p1144
sg14
g15
sba(iFingerPrint.swirl
Dependency
p1145
(dp1146
g23
Nsg24
S'libsvml.so'
p1147
sg26
g27
sg28
g29
sg14
g15
sbasg106
(lp1148
(iFingerPrint.swirl
Dependency
p1149
(dp1150
g23
Nsg24
S'libopa.so.1'
p1151
sg26
g27
sg28
g29
sg14
g15
sbasg108
(lp1152
sg110
S'/opt/mvapich2/intel/ib/lib/libopa.so.1.0.0'
p1153
sg26
g27
sba(iFingerPrint.swirl
SwirlFile
p1154
(dp1155
g10
(lp1156
sg12
(lp1157
sg14
g15
sg16
S'ab35c120ade43746cafc512c740d2734'
p1158
sg18
Nsg19
(lp1159
(iFingerPrint.swirl
Dependency
p1160
(dp1161
g23
Nsg24
S'ld-linux-x86-64.so.2'
p1162
sg26
g27
sg28
g29
sg14
g15
sba(iFingerPrint.swirl
Dependency
p1163
(dp1164
g23
Nsg24
S'libc.so.6'
p1165
sg26
g27
sg28
g29
sg14
g15
sba(iFingerPrint.swirl
Dependency
p1166
(dp1167
g23
Nsg24
S'libc.so.6'
p1168
sg26
g27
sg28
S'GLIBC_2.2.5'
p1169
sg14
g15
sba(iFingerPrint.swirl
Dependency
p1170
(dp1171
g23
Nsg24
S'libdl.so.2'
p1172
sg26
g27
sg28
g29
sg14
g15
sba(iFingerPrint.swirl
Dependency
p1173
(dp1174
g23
Nsg24
S'libgcc_s.so.1'
p1175
sg26
g27
sg28
g29
sg14
g15
sba(iFingerPrint.swirl
Dependency
p1176
(dp1177
g23
Nsg24
S'libm.so.6'
p1178
sg26
g27
sg28
g29
sg14
g15
sbasg106
(lp1179
sg108
(lp1180
sg110
S'namd/bin/flipbinpdb'
p1181
sg26
g27
sba(iFingerPrint.swirl
SwirlFile
p1182
(dp1183
g10
(lp1184
sg12
(lp1185
sg14
g15
sg16
S'170651ea4f057f6aedf7f8432c29b756'
p1186
sg18
Nsg19
(lp1187
(iFingerPrint.swirl
Dependency
p1188
(dp1189
g23
Nsg24
S'ld-linux-x86-64.so.2'
p1190
sg26
g27
sg28
g29
sg14
g15
sba(iFingerPrint.swirl
Dependency
p1191
(dp1192
g23
Nsg24
S'libc.so.6'
p1193
sg26
g27
sg28
g29
sg14
g15
sba(iFingerPrint.swirl
Dependency
p1194
(dp1195
g23
Nsg24
S'libc.so.6'
p1196
sg26
g27
sg28
S'GLIBC_2.2.5'
p1197
sg14
g15
sba(iFingerPrint.swirl
Dependency
p1198
(dp1199
g23
Nsg24
S'libdl.so.2'
p1200
sg26
g27
sg28
g29
sg14
g15
sba(iFingerPrint.swirl
Dependency
p1201
(dp1202
g23
Nsg24
S'libgcc_s.so.1'
p1203
sg26
g27
sg28
g29
sg14
g15
sba(iFingerPrint.swirl
Dependency
p1204
(dp1205
g23
Nsg24
S'libm.so.6'
p1206
sg26
g27
sg28
g29
sg14
g15
sbasg106
(lp1207
sg108
(lp1208
sg110
S'namd/bin/flipdcd'
p1209
sg26
g27
sba(iFingerPrint.swirl
SwirlFile
p1210
(dp1211
g10
(lp1212
sg12
(lp1213
sg14
g15
sg16
S'c0a299c7075d50305be415432e0ef5c4'
p1214
sg18
Nsg19
(lp1215
(iFingerPrint.swirl
Dependency
p1216
(dp1217
g23
Nsg24
S'ld-linux-x86-64.so.2'
p1218
sg26
g27
sg28
g29
sg14
g15
sba(iFingerPrint.swirl
Dependency
p1219
(dp1220
g23
Nsg24
S'libc.so.6'
p1221
sg26
g27
sg28
g29
sg14
g15
sba(iFingerPrint.swirl
Dependency
p1222
(dp1223
g23
Nsg24
S'libc.so.6'
p1224
sg26
g27
sg28
S'GLIBC_2.2.5'
p1225
sg14
g15
sba(iFingerPrint.swirl
Dependency
p1226
(dp1227
g23
Nsg24
S'libc.so.6'
p1228
sg26
g27
sg28
S'GLIBC_2.3'
p1229
sg14
g15
sba(iFingerPrint.swirl
Dependency
p1230
(dp1231
g23
Nsg24
S'libdl.so.2'
p1232
sg26
g27
sg28
g29
sg14
g15
sba(iFingerPrint.swirl
Dependency
p1233
(dp1234
g23
Nsg24
S'libgcc_s.so.1'
p1235
sg26
g27
sg28
g29
sg14
g15
sba(iFingerPrint.swirl
Dependency
p1236
(dp1237
g23
Nsg24
S'libm.so.6'
p1238
sg26
g27
sg28
g29
sg14
g15
sbasg106
(lp1239
sg108
(lp1240
sg110
S'namd/bin/psfgen'
p1241
sg26
g27
sba(iFingerPrint.swirl
SwirlFile
p1242
(dp1243
g10
(lp1244
sg12
(lp1245
sg14
S'Data'
p1246
sg16
S'3357dc3007fff11565962f75b8d8a3b9'
p1247
sg18
Nsg19
(lp1248
sg106
(lp1249
sg108
(lp1250
sg110
S'namd/bin/charmrun'
p1251
sg26
NsbasS'cmdLine'
p1252
NsS'creationDate'
p1253
cdatetime
datetime
p1254
(S'\x07\xdd\x03\x1b\x0f4\x1d\x00A\x1f'
p1255
tp1256
Rp1257
sS'name'
p1258
S'Swirl'
p1259
sS'execedFiles'
p1260
(lp1261
g8
ag1154
ag1182
ag1210
ag1242
asb.