ccopy_reg
_reconstructor
p0
(cFingerPrint.swirl
Swirl
p1
c__builtin__
object
p2
Ntp3
Rp4
(dp5
S'swirlFiles'
p6
(lp7
g0
(cFingerPrint.swirl
SwirlFile
p8
g2
Ntp9
Rp10
(dp11
S'type'
p12
S'ELF'
p13
sS'md5sum'
p14
NsS'pluginName'
p15
g13
sS'dyn'
p16
I01
sS'dependencies'
p17
(lp18
g0
(cFingerPrint.swirl
Dependency
p19
g2
Ntp20
Rp21
(dp22
S'hashList'
p23
(lp24
NaS'c44374b32d0cb75717ceae9406d75461  /lib64/libc-2.5.so'
p25
asS'packageList'
p26
(lp27
NaS'glibc-2.5-58.el5_6.4'
p28
asS'pathList'
p29
(lp30
S'/lib64/libc.so.6'
p31
aS'/lib64/libc-2.5.so'
p32
asg15
g13
sS'depname'
p33
S'libc.so.6()(64bit)'
p34
sS'arch'
p35
S'x86_64'
p36
sbag0
(g19
g2
Ntp37
Rp38
(dp39
g23
g24
sg26
g27
sg29
g30
sg15
g13
sg33
S'libc.so.6(GLIBC_2.2.5)(64bit)'
p40
sg35
g36
sbag0
(g19
g2
Ntp41
Rp42
(dp43
g23
g24
sg26
g27
sg29
g30
sg15
g13
sg33
S'libc.so.6(GLIBC_2.3.4)(64bit)'
p44
sg35
g36
sbag0
(g19
g2
Ntp45
Rp46
(dp47
g23
g24
sg26
g27
sg29
g30
sg15
g13
sg33
S'libc.so.6(GLIBC_2.3)(64bit)'
p48
sg35
g36
sbag0
(g19
g2
Ntp49
Rp50
(dp51
g23
(lp52
NaS'87fde6c2e5580be87586ee8e74326f65  /lib64/libdl-2.5.so'
p53
asg26
(lp54
NaS'glibc-2.5-58.el5_6.4'
p55
asg29
(lp56
S'/lib64/libdl.so.2'
p57
aS'/lib64/libdl-2.5.so'
p58
asg15
g13
sg33
S'libdl.so.2()(64bit)'
p59
sg35
g36
sbag0
(g19
g2
Ntp60
Rp61
(dp62
g23
(lp63
sg26
(lp64
sg29
(lp65
sg15
g13
sg33
S'libfftw3f.so.3()(64bit)'
p66
sg35
g36
sbag0
(g19
g2
Ntp67
Rp68
(dp69
g23
(lp70
NaS'7a9d1dabdcf7d11c050bd86e944f36ba  /lib64/libgcc_s-4.1.2-20080825.so.1'
p71
asg26
(lp72
NaS'libgcc-4.1.2-50.el5'
p73
asg29
(lp74
S'/lib64/libgcc_s.so.1'
p75
aS'/lib64/libgcc_s-4.1.2-20080825.so.1'
p76
asg15
g13
sg33
S'libgcc_s.so.1()(64bit)'
p77
sg35
g36
sbag0
(g19
g2
Ntp78
Rp79
(dp80
g23
g70
sg26
g72
sg29
g74
sg15
g13
sg33
S'libgcc_s.so.1(GCC_3.0)(64bit)'
p81
sg35
g36
sbag0
(g19
g2
Ntp82
Rp83
(dp84
g23
(lp85
NaS'b93051b085b3fa3839715471e2634462  /usr/lib64/libibumad.so.3.0.2'
p86
asg26
(lp87
NaS'libibumad-1.3.7-1'
p88
asg29
(lp89
S'/usr/lib64/libibumad.so.3'
p90
aS'/usr/lib64/libibumad.so.3.0.2'
p91
asg15
g13
sg33
S'libibumad.so.3()(64bit)'
p92
sg35
g36
sbag0
(g19
g2
Ntp93
Rp94
(dp95
g23
(lp96
NaS'dab5699d5e375fff7b5d1dec0e179283  /usr/lib64/libibverbs.so.1.0.0'
p97
asg26
(lp98
NaS'libibverbs-1.1.4-1.23.g6ccf63e'
p99
asg29
(lp100
S'/usr/lib64/libibverbs.so.1'
p101
aS'/usr/lib64/libibverbs.so.1.0.0'
p102
asg15
g13
sg33
S'libibverbs.so.1()(64bit)'
p103
sg35
g36
sbag0
(g19
g2
Ntp104
Rp105
(dp106
g23
(lp107
NaS'9b961ab00c5daaa7add8a8e913cd9ece  /opt/mvapich2/intel/ib/lib/liblimic2.so.0.0.0'
p108
asg26
(lp109
NaS'mvapich2_intel_ib-1.8a1p1-1'
p110
asg29
(lp111
S'/opt/mvapich2/intel/ib/lib/liblimic2.so.0'
p112
aS'/opt/mvapich2/intel/ib/lib/liblimic2.so.0.0.0'
p113
asg15
g13
sg33
S'liblimic2.so.0()(64bit)'
p114
sg35
g36
sbag0
(g19
g2
Ntp115
Rp116
(dp117
g23
(lp118
NaS'45479e5eea36635c3ef5c3e208cdc5f8  /opt/mvapich2/intel/ib/lib/libmpichcxx.so.3.3'
p119
asg26
(lp120
NaS'mvapich2_intel_ib-1.8a1p1-1'
p121
asg29
(lp122
S'/opt/mvapich2/intel/ib/lib/libmpichcxx.so.3'
p123
aS'/opt/mvapich2/intel/ib/lib/libmpichcxx.so.3.3'
p124
asg15
g13
sg33
S'libmpichcxx.so.3()(64bit)'
p125
sg35
g36
sbag0
(g19
g2
Ntp126
Rp127
(dp128
g23
(lp129
NaS'25b6f49e6cc0a70acecdc7f91f6326a2  /opt/mvapich2/intel/ib/lib/libmpich.so.3.3'
p130
asg26
(lp131
NaS'mvapich2_intel_ib-1.8a1p1-1'
p132
asg29
(lp133
S'/opt/mvapich2/intel/ib/lib/libmpich.so.3'
p134
aS'/opt/mvapich2/intel/ib/lib/libmpich.so.3.3'
p135
asg15
g13
sg33
S'libmpich.so.3()(64bit)'
p136
sg35
g36
sbag0
(g19
g2
Ntp137
Rp138
(dp139
g23
(lp140
NaS'80abe8ac293f556355470bc38295234a  /opt/mvapich2/intel/ib/lib/libmpl.so.1.1.0'
p141
asg26
(lp142
NaS'mvapich2_intel_ib-1.8a1p1-1'
p143
asg29
(lp144
S'/opt/mvapich2/intel/ib/lib/libmpl.so.1'
p145
aS'/opt/mvapich2/intel/ib/lib/libmpl.so.1.1.0'
p146
asg15
g13
sg33
S'libmpl.so.1()(64bit)'
p147
sg35
g36
sbag0
(g19
g2
Ntp148
Rp149
(dp150
g23
(lp151
NaS'183a2f04a24da2db918ea503a8d401fe  /lib64/libm-2.5.so'
p152
asg26
(lp153
NaS'glibc-2.5-58.el5_6.4'
p154
asg29
(lp155
S'/lib64/libm.so.6'
p156
aS'/lib64/libm-2.5.so'
p157
asg15
g13
sg33
S'libm.so.6()(64bit)'
p158
sg35
g36
sbag0
(g19
g2
Ntp159
Rp160
(dp161
g23
(lp162
NaS'440b992905efd1d84fe4fe114d6531e2  /opt/mvapich2/intel/ib/lib/libopa.so.1.0.0'
p163
asg26
(lp164
NaS'mvapich2_intel_ib-1.8a1p1-1'
p165
asg29
(lp166
S'/opt/mvapich2/intel/ib/lib/libopa.so.1'
p167
aS'/opt/mvapich2/intel/ib/lib/libopa.so.1.0.0'
p168
asg15
g13
sg33
S'libopa.so.1()(64bit)'
p169
sg35
g36
sbag0
(g19
g2
Ntp170
Rp171
(dp172
g23
(lp173
NaS'f886a197c76e1c1c6da82634fb6b6f05  /lib64/libpthread-2.5.so'
p174
asg26
(lp175
NaS'glibc-2.5-58.el5_6.4'
p176
asg29
(lp177
S'/lib64/libpthread.so.0'
p178
aS'/lib64/libpthread-2.5.so'
p179
asg15
g13
sg33
S'libpthread.so.0()(64bit)'
p180
sg35
g36
sbag0
(g19
g2
Ntp181
Rp182
(dp183
g23
g173
sg26
g175
sg29
g177
sg15
g13
sg33
S'libpthread.so.0(GLIBC_2.2.5)(64bit)'
p184
sg35
g36
sbag0
(g19
g2
Ntp185
Rp186
(dp187
g23
(lp188
NaS'83e1e8c2259a7e950f9812a011735beb  /usr/lib64/librdmacm.so.1.0.0'
p189
asg26
(lp190
NaS'librdmacm-1.0.14.1-1'
p191
asg29
(lp192
S'/usr/lib64/librdmacm.so.1'
p193
aS'/usr/lib64/librdmacm.so.1.0.0'
p194
asg15
g13
sg33
S'librdmacm.so.1()(64bit)'
p195
sg35
g36
sbag0
(g19
g2
Ntp196
Rp197
(dp198
g23
(lp199
NaS'75972dde6297705248f6a8a164cd556f  /lib64/librt-2.5.so'
p200
asg26
(lp201
NaS'glibc-2.5-58.el5_6.4'
p202
asg29
(lp203
S'/lib64/librt.so.1'
p204
aS'/lib64/librt-2.5.so'
p205
asg15
g13
sg33
S'librt.so.1()(64bit)'
p206
sg35
g36
sbag0
(g19
g2
Ntp207
Rp208
(dp209
g23
(lp210
NaS'c0e16491640b801fe444a8a568fe7ed8  /usr/lib64/libstdc++.so.6.0.8'
p211
asg26
(lp212
NaS'libstdc++-4.1.2-50.el5'
p213
asg29
(lp214
S'/usr/lib64/libstdc++.so.6'
p215
aS'/usr/lib64/libstdc++.so.6.0.8'
p216
asg15
g13
sg33
S'libstdc++.so.6()(64bit)'
p217
sg35
g36
sbag0
(g19
g2
Ntp218
Rp219
(dp220
g23
g210
sg26
g212
sg29
g214
sg15
g13
sg33
S'libstdc++.so.6(GLIBCXX_3.4)(64bit)'
p221
sg35
g36
sbasS'provides'
p222
(lp223
sS'path'
p224
S'namd/bin/namd2'
p225
sg35
g36
sbag0
(g8
g2
Ntp226
Rp227
(dp228
g12
g13
sg14
Nsg15
g13
sg16
I01
sg17
(lp229
g0
(g19
g2
Ntp230
Rp231
(dp232
g23
g24
sg26
g27
sg29
g30
sg15
g13
sg33
S'libc.so.6()(64bit)'
p233
sg35
g36
sbag0
(g19
g2
Ntp234
Rp235
(dp236
g23
g24
sg26
g27
sg29
g30
sg15
g13
sg33
S'libc.so.6(GLIBC_2.2.5)(64bit)'
p237
sg35
g36
sbag0
(g19
g2
Ntp238
Rp239
(dp240
g23
g52
sg26
g54
sg29
g56
sg15
g13
sg33
S'libdl.so.2()(64bit)'
p241
sg35
g36
sbag0
(g19
g2
Ntp242
Rp243
(dp244
g23
g70
sg26
g72
sg29
g74
sg15
g13
sg33
S'libgcc_s.so.1()(64bit)'
p245
sg35
g36
sbag0
(g19
g2
Ntp246
Rp247
(dp248
g23
g151
sg26
g153
sg29
g155
sg15
g13
sg33
S'libm.so.6()(64bit)'
p249
sg35
g36
sbasg222
(lp250
sg224
S'namd/bin/flipbinpdb'
p251
sg35
g36
sbag0
(g8
g2
Ntp252
Rp253
(dp254
g12
g13
sg14
Nsg15
g13
sg16
I01
sg17
(lp255
g0
(g19
g2
Ntp256
Rp257
(dp258
g23
g24
sg26
g27
sg29
g30
sg15
g13
sg33
S'libc.so.6()(64bit)'
p259
sg35
g36
sbag0
(g19
g2
Ntp260
Rp261
(dp262
g23
g24
sg26
g27
sg29
g30
sg15
g13
sg33
S'libc.so.6(GLIBC_2.2.5)(64bit)'
p263
sg35
g36
sbag0
(g19
g2
Ntp264
Rp265
(dp266
g23
g52
sg26
g54
sg29
g56
sg15
g13
sg33
S'libdl.so.2()(64bit)'
p267
sg35
g36
sbag0
(g19
g2
Ntp268
Rp269
(dp270
g23
g70
sg26
g72
sg29
g74
sg15
g13
sg33
S'libgcc_s.so.1()(64bit)'
p271
sg35
g36
sbag0
(g19
g2
Ntp272
Rp273
(dp274
g23
g151
sg26
g153
sg29
g155
sg15
g13
sg33
S'libm.so.6()(64bit)'
p275
sg35
g36
sbasg222
(lp276
sg224
S'namd/bin/flipdcd'
p277
sg35
g36
sbag0
(g8
g2
Ntp278
Rp279
(dp280
g12
g13
sg14
Nsg15
g13
sg16
I01
sg17
(lp281
g0
(g19
g2
Ntp282
Rp283
(dp284
g23
g24
sg26
g27
sg29
g30
sg15
g13
sg33
S'libc.so.6()(64bit)'
p285
sg35
g36
sbag0
(g19
g2
Ntp286
Rp287
(dp288
g23
g24
sg26
g27
sg29
g30
sg15
g13
sg33
S'libc.so.6(GLIBC_2.2.5)(64bit)'
p289
sg35
g36
sbag0
(g19
g2
Ntp290
Rp291
(dp292
g23
g24
sg26
g27
sg29
g30
sg15
g13
sg33
S'libc.so.6(GLIBC_2.3)(64bit)'
p293
sg35
g36
sbag0
(g19
g2
Ntp294
Rp295
(dp296
g23
g52
sg26
g54
sg29
g56
sg15
g13
sg33
S'libdl.so.2()(64bit)'
p297
sg35
g36
sbag0
(g19
g2
Ntp298
Rp299
(dp300
g23
g70
sg26
g72
sg29
g74
sg15
g13
sg33
S'libgcc_s.so.1()(64bit)'
p301
sg35
g36
sbag0
(g19
g2
Ntp302
Rp303
(dp304
g23
g151
sg26
g153
sg29
g155
sg15
g13
sg33
S'libm.so.6()(64bit)'
p305
sg35
g36
sbasg222
(lp306
sg224
S'namd/bin/psfgen'
p307
sg35
g36
sbag0
(g8
g2
Ntp308
Rp309
(dp310
g12
S'Data'
p311
sg14
Nsg15
Nsg16
I01
sg17
(lp312
sg222
(lp313
sg224
S'namd/bin/charmrun'
p314
sg35
NsbasS'creationDate'
p315
cdatetime
datetime
p316
(S'\x07\xdc\t\n\r4\t\x06\xb4U'
p317
tp318
Rp319
sS'name'
p320
S'Swirl'
p321
sb.