ccopy_reg
_reconstructor
p0
(cFingerPrint.swirl
Swirl
p1
c__builtin__
object
p2
Ntp3
Rp4
(dp5
S'swirlFiles'
p6
(lp7
g0
(cFingerPrint.swirl
SwirlFile
p8
g2
Ntp9
Rp10
(dp11
S'type'
p12
S'ELF'
p13
sS'md5sum'
p14
NsS'pluginName'
p15
g13
sS'dyn'
p16
I01
sS'dependencies'
p17
(lp18
g0
(cFingerPrint.swirl
Dependency
p19
g2
Ntp20
Rp21
(dp22
S'hashList'
p23
(lp24
NaS'c44374b32d0cb75717ceae9406d75461'
p25
asS'packageList'
p26
(lp27
NaS'glibc-2.5-58.el5_6.4'
p28
asS'pathList'
p29
(lp30
S'/lib64/libc.so.6'
p31
aS'/lib64/libc-2.5.so'
p32
asg15
g13
sS'depname'
p33
S'libc.so.6()(64bit)'
p34
sS'arch'
p35
S'x86_64'
p36
sbag0
(g19
g2
Ntp37
Rp38
(dp39
g23
g24
sg26
g27
sg29
g30
sg15
g13
sg33
S'libc.so.6(GLIBC_2.2.5)(64bit)'
p40
sg35
g36
sbag0
(g19
g2
Ntp41
Rp42
(dp43
g23
g24
sg26
g27
sg29
g30
sg15
g13
sg33
S'libc.so.6(GLIBC_2.3.4)(64bit)'
p44
sg35
g36
sbag0
(g19
g2
Ntp45
Rp46
(dp47
g23
g24
sg26
g27
sg29
g30
sg15
g13
sg33
S'libc.so.6(GLIBC_2.3)(64bit)'
p48
sg35
g36
sbag0
(g19
g2
Ntp49
Rp50
(dp51
g23
(lp52
NaS'87fde6c2e5580be87586ee8e74326f65'
p53
asg26
(lp54
NaS'glibc-2.5-58.el5_6.4'
p55
asg29
(lp56
S'/lib64/libdl.so.2'
p57
aS'/lib64/libdl-2.5.so'
p58
asg15
g13
sg33
S'libdl.so.2()(64bit)'
p59
sg35
g36
sbag0
(g19
g2
Ntp60
Rp61
(dp62
g23
(lp63
NaS'ae44a3ad5bce6bb2eb744514710a9bb2'
p64
asg26
(lp65
NaNasg29
(lp66
S'/oasis/scratch/clem/temp_project/XsedeTests/compile/gordon/namd/fftwbin/lib//libfftw3f.so.3'
p67
aS'/oasis/scratch/clem/temp_project/XsedeTests/compile/gordon/namd/fftwbin/lib/libfftw3f.so.3.3.2'
p68
asg15
g13
sg33
S'libfftw3f.so.3()(64bit)'
p69
sg35
g36
sbag0
(g19
g2
Ntp70
Rp71
(dp72
g23
(lp73
NaS'7a9d1dabdcf7d11c050bd86e944f36ba'
p74
asg26
(lp75
NaS'libgcc-4.1.2-50.el5'
p76
asg29
(lp77
S'/lib64/libgcc_s.so.1'
p78
aS'/lib64/libgcc_s-4.1.2-20080825.so.1'
p79
asg15
g13
sg33
S'libgcc_s.so.1()(64bit)'
p80
sg35
g36
sbag0
(g19
g2
Ntp81
Rp82
(dp83
g23
g73
sg26
g75
sg29
g77
sg15
g13
sg33
S'libgcc_s.so.1(GCC_3.0)(64bit)'
p84
sg35
g36
sbag0
(g19
g2
Ntp85
Rp86
(dp87
g23
(lp88
NaS'b93051b085b3fa3839715471e2634462'
p89
asg26
(lp90
NaS'libibumad-1.3.7-1'
p91
asg29
(lp92
S'/usr/lib64/libibumad.so.3'
p93
aS'/usr/lib64/libibumad.so.3.0.2'
p94
asg15
g13
sg33
S'libibumad.so.3()(64bit)'
p95
sg35
g36
sbag0
(g19
g2
Ntp96
Rp97
(dp98
g23
(lp99
NaS'dab5699d5e375fff7b5d1dec0e179283'
p100
asg26
(lp101
NaS'libibverbs-1.1.4-1.23.g6ccf63e'
p102
asg29
(lp103
S'/usr/lib64/libibverbs.so.1'
p104
aS'/usr/lib64/libibverbs.so.1.0.0'
p105
asg15
g13
sg33
S'libibverbs.so.1()(64bit)'
p106
sg35
g36
sbag0
(g19
g2
Ntp107
Rp108
(dp109
g23
(lp110
NaS'9b961ab00c5daaa7add8a8e913cd9ece'
p111
asg26
(lp112
NaS'mvapich2_intel_ib-1.8a1p1-1'
p113
asg29
(lp114
S'/opt/mvapich2/intel/ib/lib/liblimic2.so.0'
p115
aS'/opt/mvapich2/intel/ib/lib/liblimic2.so.0.0.0'
p116
asg15
g13
sg33
S'liblimic2.so.0()(64bit)'
p117
sg35
g36
sbag0
(g19
g2
Ntp118
Rp119
(dp120
g23
(lp121
S'a4d31ac9480917035c408e8e1bd5f164'
p122
asg26
(lp123
Nasg29
(lp124
S'/home/clem/temp/ParaView-3.14.1-Linux-64bit/lib/paraview-3.14//libmpichcxx.so.3'
p125
asg15
g13
sg33
S'libmpichcxx.so.3()(64bit)'
p126
sg35
g36
sbag0
(g19
g2
Ntp127
Rp128
(dp129
g23
(lp130
S'334f08c5dbe8e98dff4e2f7476b574de'
p131
asg26
(lp132
Nasg29
(lp133
S'/home/clem/temp/ParaView-3.14.1-Linux-64bit/lib/paraview-3.14//libmpich.so.3'
p134
asg15
g13
sg33
S'libmpich.so.3()(64bit)'
p135
sg35
g36
sbag0
(g19
g2
Ntp136
Rp137
(dp138
g23
(lp139
S'988a04b3ee5be78077b842a4e2c00f86'
p140
asg26
(lp141
Nasg29
(lp142
S'/home/clem/temp/ParaView-3.14.1-Linux-64bit/lib/paraview-3.14//libmpl.so.1'
p143
asg15
g13
sg33
S'libmpl.so.1()(64bit)'
p144
sg35
g36
sbag0
(g19
g2
Ntp145
Rp146
(dp147
g23
(lp148
NaS'183a2f04a24da2db918ea503a8d401fe'
p149
asg26
(lp150
NaS'glibc-2.5-58.el5_6.4'
p151
asg29
(lp152
S'/lib64/libm.so.6'
p153
aS'/lib64/libm-2.5.so'
p154
asg15
g13
sg33
S'libm.so.6()(64bit)'
p155
sg35
g36
sbag0
(g19
g2
Ntp156
Rp157
(dp158
g23
(lp159
S'26d9d555fd0183c1dc3df9e915b51232'
p160
asg26
(lp161
Nasg29
(lp162
S'/home/clem/temp/ParaView-3.14.1-Linux-64bit/lib/paraview-3.14//libopa.so.1'
p163
asg15
g13
sg33
S'libopa.so.1()(64bit)'
p164
sg35
g36
sbag0
(g19
g2
Ntp165
Rp166
(dp167
g23
(lp168
NaS'f886a197c76e1c1c6da82634fb6b6f05'
p169
asg26
(lp170
NaS'glibc-2.5-58.el5_6.4'
p171
asg29
(lp172
S'/lib64/libpthread.so.0'
p173
aS'/lib64/libpthread-2.5.so'
p174
asg15
g13
sg33
S'libpthread.so.0()(64bit)'
p175
sg35
g36
sbag0
(g19
g2
Ntp176
Rp177
(dp178
g23
g168
sg26
g170
sg29
g172
sg15
g13
sg33
S'libpthread.so.0(GLIBC_2.2.5)(64bit)'
p179
sg35
g36
sbag0
(g19
g2
Ntp180
Rp181
(dp182
g23
(lp183
NaS'83e1e8c2259a7e950f9812a011735beb'
p184
asg26
(lp185
NaS'librdmacm-1.0.14.1-1'
p186
asg29
(lp187
S'/usr/lib64/librdmacm.so.1'
p188
aS'/usr/lib64/librdmacm.so.1.0.0'
p189
asg15
g13
sg33
S'librdmacm.so.1()(64bit)'
p190
sg35
g36
sbag0
(g19
g2
Ntp191
Rp192
(dp193
g23
(lp194
NaS'75972dde6297705248f6a8a164cd556f'
p195
asg26
(lp196
NaS'glibc-2.5-58.el5_6.4'
p197
asg29
(lp198
S'/lib64/librt.so.1'
p199
aS'/lib64/librt-2.5.so'
p200
asg15
g13
sg33
S'librt.so.1()(64bit)'
p201
sg35
g36
sbag0
(g19
g2
Ntp202
Rp203
(dp204
g23
(lp205
NaS'c0e16491640b801fe444a8a568fe7ed8'
p206
asg26
(lp207
NaS'libstdc++-4.1.2-50.el5'
p208
asg29
(lp209
S'/usr/lib64/libstdc++.so.6'
p210
aS'/usr/lib64/libstdc++.so.6.0.8'
p211
asg15
g13
sg33
S'libstdc++.so.6()(64bit)'
p212
sg35
g36
sbag0
(g19
g2
Ntp213
Rp214
(dp215
g23
g205
sg26
g207
sg29
g209
sg15
g13
sg33
S'libstdc++.so.6(GLIBCXX_3.4)(64bit)'
p216
sg35
g36
sbasS'provides'
p217
(lp218
sS'path'
p219
S'namd/bin/namd2'
p220
sg35
g36
sbag0
(g8
g2
Ntp221
Rp222
(dp223
g12
g13
sg14
Nsg15
g13
sg16
I01
sg17
(lp224
g0
(g19
g2
Ntp225
Rp226
(dp227
g23
g24
sg26
g27
sg29
g30
sg15
g13
sg33
S'libc.so.6()(64bit)'
p228
sg35
g36
sbag0
(g19
g2
Ntp229
Rp230
(dp231
g23
g24
sg26
g27
sg29
g30
sg15
g13
sg33
S'libc.so.6(GLIBC_2.2.5)(64bit)'
p232
sg35
g36
sbag0
(g19
g2
Ntp233
Rp234
(dp235
g23
g52
sg26
g54
sg29
g56
sg15
g13
sg33
S'libdl.so.2()(64bit)'
p236
sg35
g36
sbag0
(g19
g2
Ntp237
Rp238
(dp239
g23
g73
sg26
g75
sg29
g77
sg15
g13
sg33
S'libgcc_s.so.1()(64bit)'
p240
sg35
g36
sbag0
(g19
g2
Ntp241
Rp242
(dp243
g23
g148
sg26
g150
sg29
g152
sg15
g13
sg33
S'libm.so.6()(64bit)'
p244
sg35
g36
sbasg217
(lp245
sg219
S'namd/bin/flipbinpdb'
p246
sg35
g36
sbag0
(g8
g2
Ntp247
Rp248
(dp249
g12
g13
sg14
Nsg15
g13
sg16
I01
sg17
(lp250
g0
(g19
g2
Ntp251
Rp252
(dp253
g23
g24
sg26
g27
sg29
g30
sg15
g13
sg33
S'libc.so.6()(64bit)'
p254
sg35
g36
sbag0
(g19
g2
Ntp255
Rp256
(dp257
g23
g24
sg26
g27
sg29
g30
sg15
g13
sg33
S'libc.so.6(GLIBC_2.2.5)(64bit)'
p258
sg35
g36
sbag0
(g19
g2
Ntp259
Rp260
(dp261
g23
g52
sg26
g54
sg29
g56
sg15
g13
sg33
S'libdl.so.2()(64bit)'
p262
sg35
g36
sbag0
(g19
g2
Ntp263
Rp264
(dp265
g23
g73
sg26
g75
sg29
g77
sg15
g13
sg33
S'libgcc_s.so.1()(64bit)'
p266
sg35
g36
sbag0
(g19
g2
Ntp267
Rp268
(dp269
g23
g148
sg26
g150
sg29
g152
sg15
g13
sg33
S'libm.so.6()(64bit)'
p270
sg35
g36
sbasg217
(lp271
sg219
S'namd/bin/flipdcd'
p272
sg35
g36
sbag0
(g8
g2
Ntp273
Rp274
(dp275
g12
g13
sg14
Nsg15
g13
sg16
I01
sg17
(lp276
g0
(g19
g2
Ntp277
Rp278
(dp279
g23
g24
sg26
g27
sg29
g30
sg15
g13
sg33
S'libc.so.6()(64bit)'
p280
sg35
g36
sbag0
(g19
g2
Ntp281
Rp282
(dp283
g23
g24
sg26
g27
sg29
g30
sg15
g13
sg33
S'libc.so.6(GLIBC_2.2.5)(64bit)'
p284
sg35
g36
sbag0
(g19
g2
Ntp285
Rp286
(dp287
g23
g24
sg26
g27
sg29
g30
sg15
g13
sg33
S'libc.so.6(GLIBC_2.3)(64bit)'
p288
sg35
g36
sbag0
(g19
g2
Ntp289
Rp290
(dp291
g23
g52
sg26
g54
sg29
g56
sg15
g13
sg33
S'libdl.so.2()(64bit)'
p292
sg35
g36
sbag0
(g19
g2
Ntp293
Rp294
(dp295
g23
g73
sg26
g75
sg29
g77
sg15
g13
sg33
S'libgcc_s.so.1()(64bit)'
p296
sg35
g36
sbag0
(g19
g2
Ntp297
Rp298
(dp299
g23
g148
sg26
g150
sg29
g152
sg15
g13
sg33
S'libm.so.6()(64bit)'
p300
sg35
g36
sbasg217
(lp301
sg219
S'namd/bin/psfgen'
p302
sg35
g36
sbag0
(g8
g2
Ntp303
Rp304
(dp305
g12
S'Data'
p306
sg14
Nsg15
Nsg16
I01
sg17
(lp307
sg217
(lp308
sg219
S'namd/bin/charmrun'
p309
sg35
NsbasS'creationDate'
p310
cdatetime
datetime
p311
(S'\x07\xdc\t\x18\x11$"\x0e\xf2a'
p312
tp313
Rp314
sS'name'
p315
S'Swirl'
p316
sb.