ccopy_reg
_reconstructor
p0
(cFingerPrint.swirl
Swirl
p1
c__builtin__
object
p2
Ntp3
Rp4
(dp5
S'swirlFiles'
p6
(lp7
g0
(cFingerPrint.swirl
SwirlFile
p8
g2
Ntp9
Rp10
(dp11
S'type'
p12
S'ELF'
p13
sS'md5sum'
p14
NsS'pluginName'
p15
g13
sS'dyn'
p16
I01
sS'dependencies'
p17
(lp18
g0
(cFingerPrint.swirl
Dependency
p19
g2
Ntp20
Rp21
(dp22
S'hashList'
p23
(lp24
NaS'c44374b32d0cb75717ceae9406d75461'
p25
asS'packageList'
p26
(lp27
NaS'glibc-2.5-58.el5_6.4'
p28
asS'pathList'
p29
(lp30
S'/lib64/libc.so.6'
p31
aS'/lib64/libc-2.5.so'
p32
asg15
g13
sS'depname'
p33
S'libc.so.6()(64bit)'
p34
sS'arch'
p35
S'x86_64'
p36
sbag0
(g19
g2
Ntp37
Rp38
(dp39
g23
g24
sg26
g27
sg29
g30
sg15
g13
sg33
S'libc.so.6(GLIBC_2.2.5)(64bit)'
p40
sg35
g36
sbag0
(g19
g2
Ntp41
Rp42
(dp43
g23
g24
sg26
g27
sg29
g30
sg15
g13
sg33
S'libc.so.6(GLIBC_2.3.4)(64bit)'
p44
sg35
g36
sbag0
(g19
g2
Ntp45
Rp46
(dp47
g23
g24
sg26
g27
sg29
g30
sg15
g13
sg33
S'libc.so.6(GLIBC_2.3)(64bit)'
p48
sg35
g36
sbag0
(g19
g2
Ntp49
Rp50
(dp51
g23
(lp52
NaS'87fde6c2e5580be87586ee8e74326f65'
p53
asg26
(lp54
NaS'glibc-2.5-58.el5_6.4'
p55
asg29
(lp56
S'/lib64/libdl.so.2'
p57
aS'/lib64/libdl-2.5.so'
p58
asg15
g13
sg33
S'libdl.so.2()(64bit)'
p59
sg35
g36
sbag0
(g19
g2
Ntp60
Rp61
(dp62
g23
(lp63
NaS'ae44a3ad5bce6bb2eb744514710a9bb2'
p64
asg26
(lp65
NaNasg29
(lp66
S'/oasis/scratch/clem/temp_project/XsedeTests/compile/gordon/namd/fftwbin/lib//libfftw3f.so.3'
p67
aS'/oasis/scratch/clem/temp_project/XsedeTests/compile/gordon/namd/fftwbin/lib/libfftw3f.so.3.3.2'
p68
asg15
g13
sg33
S'libfftw3f.so.3()(64bit)'
p69
sg35
g36
sbag0
(g19
g2
Ntp70
Rp71
(dp72
g23
(lp73
NaS'7a9d1dabdcf7d11c050bd86e944f36ba'
p74
asg26
(lp75
NaS'libgcc-4.1.2-50.el5'
p76
asg29
(lp77
S'/lib64/libgcc_s.so.1'
p78
aS'/lib64/libgcc_s-4.1.2-20080825.so.1'
p79
asg15
g13
sg33
S'libgcc_s.so.1()(64bit)'
p80
sg35
g36
sbag0
(g19
g2
Ntp81
Rp82
(dp83
g23
g73
sg26
g75
sg29
g77
sg15
g13
sg33
S'libgcc_s.so.1(GCC_3.0)(64bit)'
p84
sg35
g36
sbag0
(g19
g2
Ntp85
Rp86
(dp87
g23
(lp88
NaS'b93051b085b3fa3839715471e2634462'
p89
asg26
(lp90
NaS'libibumad-1.3.7-1'
p91
asg29
(lp92
S'/usr/lib64/libibumad.so.3'
p93
aS'/usr/lib64/libibumad.so.3.0.2'
p94
asg15
g13
sg33
S'libibumad.so.3()(64bit)'
p95
sg35
g36
sbag0
(g19
g2
Ntp96
Rp97
(dp98
g23
(lp99
NaS'dab5699d5e375fff7b5d1dec0e179283'
p100
asg26
(lp101
NaS'libibverbs-1.1.4-1.23.g6ccf63e'
p102
asg29
(lp103
S'/usr/lib64/libibverbs.so.1'
p104
aS'/usr/lib64/libibverbs.so.1.0.0'
p105
asg15
g13
sg33
S'libibverbs.so.1()(64bit)'
p106
sg35
g36
sbag0
(g19
g2
Ntp107
Rp108
(dp109
g23
(lp110
NaS'9b961ab00c5daaa7add8a8e913cd9ece'
p111
asg26
(lp112
NaS'mvapich2_intel_ib-1.8a1p1-1'
p113
asg29
(lp114
S'/opt/mvapich2/intel/ib/lib/liblimic2.so.0'
p115
aS'/opt/mvapich2/intel/ib/lib/liblimic2.so.0.0.0'
p116
asg15
g13
sg33
S'liblimic2.so.0()(64bit)'
p117
sg35
g36
sbag0
(g19
g2
Ntp118
Rp119
(dp120
g23
(lp121
NaS'45479e5eea36635c3ef5c3e208cdc5f8'
p122
asg26
(lp123
NaS'mvapich2_intel_ib-1.8a1p1-1'
p124
asg29
(lp125
S'/opt/mvapich2/intel/ib/lib/libmpichcxx.so.3'
p126
aS'/opt/mvapich2/intel/ib/lib/libmpichcxx.so.3.3'
p127
asg15
g13
sg33
S'libmpichcxx.so.3()(64bit)'
p128
sg35
g36
sbag0
(g19
g2
Ntp129
Rp130
(dp131
g23
(lp132
NaS'25b6f49e6cc0a70acecdc7f91f6326a2'
p133
asg26
(lp134
NaS'mvapich2_intel_ib-1.8a1p1-1'
p135
asg29
(lp136
S'/opt/mvapich2/intel/ib/lib/libmpich.so.3'
p137
aS'/opt/mvapich2/intel/ib/lib/libmpich.so.3.3'
p138
asg15
g13
sg33
S'libmpich.so.3()(64bit)'
p139
sg35
g36
sbag0
(g19
g2
Ntp140
Rp141
(dp142
g23
(lp143
NaS'80abe8ac293f556355470bc38295234a'
p144
asg26
(lp145
NaS'mvapich2_intel_ib-1.8a1p1-1'
p146
asg29
(lp147
S'/opt/mvapich2/intel/ib/lib/libmpl.so.1'
p148
aS'/opt/mvapich2/intel/ib/lib/libmpl.so.1.1.0'
p149
asg15
g13
sg33
S'libmpl.so.1()(64bit)'
p150
sg35
g36
sbag0
(g19
g2
Ntp151
Rp152
(dp153
g23
(lp154
NaS'183a2f04a24da2db918ea503a8d401fe'
p155
asg26
(lp156
NaS'glibc-2.5-58.el5_6.4'
p157
asg29
(lp158
S'/lib64/libm.so.6'
p159
aS'/lib64/libm-2.5.so'
p160
asg15
g13
sg33
S'libm.so.6()(64bit)'
p161
sg35
g36
sbag0
(g19
g2
Ntp162
Rp163
(dp164
g23
(lp165
NaS'440b992905efd1d84fe4fe114d6531e2'
p166
asg26
(lp167
NaS'mvapich2_intel_ib-1.8a1p1-1'
p168
asg29
(lp169
S'/opt/mvapich2/intel/ib/lib/libopa.so.1'
p170
aS'/opt/mvapich2/intel/ib/lib/libopa.so.1.0.0'
p171
asg15
g13
sg33
S'libopa.so.1()(64bit)'
p172
sg35
g36
sbag0
(g19
g2
Ntp173
Rp174
(dp175
g23
(lp176
NaS'f886a197c76e1c1c6da82634fb6b6f05'
p177
asg26
(lp178
NaS'glibc-2.5-58.el5_6.4'
p179
asg29
(lp180
S'/lib64/libpthread.so.0'
p181
aS'/lib64/libpthread-2.5.so'
p182
asg15
g13
sg33
S'libpthread.so.0()(64bit)'
p183
sg35
g36
sbag0
(g19
g2
Ntp184
Rp185
(dp186
g23
g176
sg26
g178
sg29
g180
sg15
g13
sg33
S'libpthread.so.0(GLIBC_2.2.5)(64bit)'
p187
sg35
g36
sbag0
(g19
g2
Ntp188
Rp189
(dp190
g23
(lp191
NaS'83e1e8c2259a7e950f9812a011735beb'
p192
asg26
(lp193
NaS'librdmacm-1.0.14.1-1'
p194
asg29
(lp195
S'/usr/lib64/librdmacm.so.1'
p196
aS'/usr/lib64/librdmacm.so.1.0.0'
p197
asg15
g13
sg33
S'librdmacm.so.1()(64bit)'
p198
sg35
g36
sbag0
(g19
g2
Ntp199
Rp200
(dp201
g23
(lp202
NaS'75972dde6297705248f6a8a164cd556f'
p203
asg26
(lp204
NaS'glibc-2.5-58.el5_6.4'
p205
asg29
(lp206
S'/lib64/librt.so.1'
p207
aS'/lib64/librt-2.5.so'
p208
asg15
g13
sg33
S'librt.so.1()(64bit)'
p209
sg35
g36
sbag0
(g19
g2
Ntp210
Rp211
(dp212
g23
(lp213
NaS'c0e16491640b801fe444a8a568fe7ed8'
p214
asg26
(lp215
NaS'libstdc++-4.1.2-50.el5'
p216
asg29
(lp217
S'/usr/lib64/libstdc++.so.6'
p218
aS'/usr/lib64/libstdc++.so.6.0.8'
p219
asg15
g13
sg33
S'libstdc++.so.6()(64bit)'
p220
sg35
g36
sbag0
(g19
g2
Ntp221
Rp222
(dp223
g23
g213
sg26
g215
sg29
g217
sg15
g13
sg33
S'libstdc++.so.6(GLIBCXX_3.4)(64bit)'
p224
sg35
g36
sbasS'provides'
p225
(lp226
sS'path'
p227
S'namd/bin/namd2'
p228
sg35
g36
sbag0
(g8
g2
Ntp229
Rp230
(dp231
g12
g13
sg14
Nsg15
g13
sg16
I01
sg17
(lp232
g0
(g19
g2
Ntp233
Rp234
(dp235
g23
g24
sg26
g27
sg29
g30
sg15
g13
sg33
S'libc.so.6()(64bit)'
p236
sg35
g36
sbag0
(g19
g2
Ntp237
Rp238
(dp239
g23
g24
sg26
g27
sg29
g30
sg15
g13
sg33
S'libc.so.6(GLIBC_2.2.5)(64bit)'
p240
sg35
g36
sbag0
(g19
g2
Ntp241
Rp242
(dp243
g23
g52
sg26
g54
sg29
g56
sg15
g13
sg33
S'libdl.so.2()(64bit)'
p244
sg35
g36
sbag0
(g19
g2
Ntp245
Rp246
(dp247
g23
g73
sg26
g75
sg29
g77
sg15
g13
sg33
S'libgcc_s.so.1()(64bit)'
p248
sg35
g36
sbag0
(g19
g2
Ntp249
Rp250
(dp251
g23
g154
sg26
g156
sg29
g158
sg15
g13
sg33
S'libm.so.6()(64bit)'
p252
sg35
g36
sbasg225
(lp253
sg227
S'namd/bin/flipbinpdb'
p254
sg35
g36
sbag0
(g8
g2
Ntp255
Rp256
(dp257
g12
g13
sg14
Nsg15
g13
sg16
I01
sg17
(lp258
g0
(g19
g2
Ntp259
Rp260
(dp261
g23
g24
sg26
g27
sg29
g30
sg15
g13
sg33
S'libc.so.6()(64bit)'
p262
sg35
g36
sbag0
(g19
g2
Ntp263
Rp264
(dp265
g23
g24
sg26
g27
sg29
g30
sg15
g13
sg33
S'libc.so.6(GLIBC_2.2.5)(64bit)'
p266
sg35
g36
sbag0
(g19
g2
Ntp267
Rp268
(dp269
g23
g52
sg26
g54
sg29
g56
sg15
g13
sg33
S'libdl.so.2()(64bit)'
p270
sg35
g36
sbag0
(g19
g2
Ntp271
Rp272
(dp273
g23
g73
sg26
g75
sg29
g77
sg15
g13
sg33
S'libgcc_s.so.1()(64bit)'
p274
sg35
g36
sbag0
(g19
g2
Ntp275
Rp276
(dp277
g23
g154
sg26
g156
sg29
g158
sg15
g13
sg33
S'libm.so.6()(64bit)'
p278
sg35
g36
sbasg225
(lp279
sg227
S'namd/bin/flipdcd'
p280
sg35
g36
sbag0
(g8
g2
Ntp281
Rp282
(dp283
g12
g13
sg14
Nsg15
g13
sg16
I01
sg17
(lp284
g0
(g19
g2
Ntp285
Rp286
(dp287
g23
g24
sg26
g27
sg29
g30
sg15
g13
sg33
S'libc.so.6()(64bit)'
p288
sg35
g36
sbag0
(g19
g2
Ntp289
Rp290
(dp291
g23
g24
sg26
g27
sg29
g30
sg15
g13
sg33
S'libc.so.6(GLIBC_2.2.5)(64bit)'
p292
sg35
g36
sbag0
(g19
g2
Ntp293
Rp294
(dp295
g23
g24
sg26
g27
sg29
g30
sg15
g13
sg33
S'libc.so.6(GLIBC_2.3)(64bit)'
p296
sg35
g36
sbag0
(g19
g2
Ntp297
Rp298
(dp299
g23
g52
sg26
g54
sg29
g56
sg15
g13
sg33
S'libdl.so.2()(64bit)'
p300
sg35
g36
sbag0
(g19
g2
Ntp301
Rp302
(dp303
g23
g73
sg26
g75
sg29
g77
sg15
g13
sg33
S'libgcc_s.so.1()(64bit)'
p304
sg35
g36
sbag0
(g19
g2
Ntp305
Rp306
(dp307
g23
g154
sg26
g156
sg29
g158
sg15
g13
sg33
S'libm.so.6()(64bit)'
p308
sg35
g36
sbasg225
(lp309
sg227
S'namd/bin/psfgen'
p310
sg35
g36
sbag0
(g8
g2
Ntp311
Rp312
(dp313
g12
S'Data'
p314
sg14
Nsg15
Nsg16
I01
sg17
(lp315
sg225
(lp316
sg227
S'namd/bin/charmrun'
p317
sg35
NsbasS'creationDate'
p318
cdatetime
datetime
p319
(S'\x07\xdc\t\x18\x110*\x04\xc9\xf2'
p320
tp321
Rp322
sS'name'
p323
S'Swirl'
p324
sb.