ccopy_reg
_reconstructor
p0
(cFingerPrint.swirl
Swirl
p1
c__builtin__
object
p2
Ntp3
Rp4
(dp5
S'ldconf_paths'
p6
(lp7
S'/opt/rocks/lib/mysql'
p8
aS'/lib64'
p9
aS'/usr/lib64'
p10
aS'/opt/rocks/lib'
p11
aS'/opt/ctss/globus/lib'
p12
aS'/opt/pdsh/lib/pdsh'
p13
aS'/opt/torque/lib64'
p14
aS'/usr/lib64/xulrunner-1.9.2'
p15
aS'/lib/i686'
p16
aS'/usr/lib64/sse2'
p17
aS'/usr/lib64/tls'
p18
asS'name'
p19
S'Swirl'
p20
sS'execedFiles'
p21
(lp22
(iFingerPrint.swirl
SwirlFile
p23
(dp24
S'executable'
p25
I01
sS'env'
p26
(lp27
sS'links'
p28
(lp29
sS'dynamicDependencies'
p30
(lp31
sS'type'
p32
S'ELF'
p33
sS'md5sum'
p34
S'c697f56c7530825b82abeefea3a22679'
p35
sS'package'
p36
NsS'staticDependencies'
p37
(lp38
(iFingerPrint.swirl
Dependency
p39
(dp40
S'hwcap'
p41
NsS'major'
p42
S'ld-linux-x86-64.so.2'
p43
sS'arch'
p44
S'x86_64'
p45
sS'minor'
p46
S''
p47
sg32
g33
sba(iFingerPrint.swirl
Dependency
p48
(dp49
g41
Nsg42
S'libc.so.6'
p50
sg44
g45
sg46
g47
sg32
g33
sba(iFingerPrint.swirl
Dependency
p51
(dp52
g41
Nsg42
S'libc.so.6'
p53
sg44
g45
sg46
S'GLIBC_2.2.5'
p54
sg32
g33
sba(iFingerPrint.swirl
Dependency
p55
(dp56
g41
Nsg42
S'libc.so.6'
p57
sg44
g45
sg46
S'GLIBC_2.3.4'
p58
sg32
g33
sba(iFingerPrint.swirl
Dependency
p59
(dp60
g41
Nsg42
S'libc.so.6'
p61
sg44
g45
sg46
S'GLIBC_2.3'
p62
sg32
g33
sba(iFingerPrint.swirl
Dependency
p63
(dp64
g41
Nsg42
S'libdl.so.2'
p65
sg44
g45
sg46
g47
sg32
g33
sba(iFingerPrint.swirl
Dependency
p66
(dp67
g41
Nsg42
S'libfftw3f.so.3'
p68
sg44
g45
sg46
g47
sg32
g33
sba(iFingerPrint.swirl
Dependency
p69
(dp70
g41
Nsg42
S'libgcc_s.so.1'
p71
sg44
g45
sg46
g47
sg32
g33
sba(iFingerPrint.swirl
Dependency
p72
(dp73
g41
Nsg42
S'libgcc_s.so.1'
p74
sg44
g45
sg46
S'GCC_3.0'
p75
sg32
g33
sba(iFingerPrint.swirl
Dependency
p76
(dp77
g41
Nsg42
S'libibumad.so.3'
p78
sg44
g45
sg46
g47
sg32
g33
sba(iFingerPrint.swirl
Dependency
p79
(dp80
g41
Nsg42
S'libibverbs.so.1'
p81
sg44
g45
sg46
g47
sg32
g33
sba(iFingerPrint.swirl
Dependency
p82
(dp83
g41
Nsg42
S'liblimic2.so.0'
p84
sg44
g45
sg46
g47
sg32
g33
sba(iFingerPrint.swirl
Dependency
p85
(dp86
g41
Nsg42
S'libmpichcxx.so.3'
p87
sg44
g45
sg46
g47
sg32
g33
sba(iFingerPrint.swirl
Dependency
p88
(dp89
g41
Nsg42
S'libmpich.so.3'
p90
sg44
g45
sg46
g47
sg32
g33
sba(iFingerPrint.swirl
Dependency
p91
(dp92
g41
Nsg42
S'libmpl.so.1'
p93
sg44
g45
sg46
g47
sg32
g33
sba(iFingerPrint.swirl
Dependency
p94
(dp95
g41
Nsg42
S'libm.so.6'
p96
sg44
g45
sg46
g47
sg32
g33
sba(iFingerPrint.swirl
Dependency
p97
(dp98
g41
Nsg42
S'libopa.so.1'
p99
sg44
g45
sg46
g47
sg32
g33
sba(iFingerPrint.swirl
Dependency
p100
(dp101
g41
Nsg42
S'libpthread.so.0'
p102
sg44
g45
sg46
g47
sg32
g33
sba(iFingerPrint.swirl
Dependency
p103
(dp104
g41
Nsg42
S'libpthread.so.0'
p105
sg44
g45
sg46
S'GLIBC_2.2.5'
p106
sg32
g33
sba(iFingerPrint.swirl
Dependency
p107
(dp108
g41
Nsg42
S'librdmacm.so.1'
p109
sg44
g45
sg46
g47
sg32
g33
sba(iFingerPrint.swirl
Dependency
p110
(dp111
g41
Nsg42
S'librt.so.1'
p112
sg44
g45
sg46
g47
sg32
g33
sba(iFingerPrint.swirl
Dependency
p113
(dp114
g41
Nsg42
S'libstdc++.so.6'
p115
sg44
g45
sg46
g47
sg32
g33
sba(iFingerPrint.swirl
Dependency
p116
(dp117
g41
Nsg42
S'libstdc++.so.6'
p118
sg44
g45
sg46
S'CXXABI_1.3'
p119
sg32
g33
sba(iFingerPrint.swirl
Dependency
p120
(dp121
g41
Nsg42
S'libstdc++.so.6'
p122
sg44
g45
sg46
S'GLIBCXX_3.4'
p123
sg32
g33
sbasS'provides'
p124
(lp125
sS'openedFiles'
p126
(dp127
sS'rpaths'
p128
(lp129
S'/opt/mvapich2/intel/ib/lib'
p130
asS'path'
p131
S'/home/clem/XsedeTests/compile/gordon/namd/bin/namd2'
p132
sg44
g45
sba(iFingerPrint.swirl
SwirlFile
p133
(dp134
g25
I01
sg26
(lp135
sg28
(lp136
sg30
(lp137
sg32
g33
sg34
S'ab35c120ade43746cafc512c740d2734'
p138
sg36
Nsg37
(lp139
(iFingerPrint.swirl
Dependency
p140
(dp141
g41
Nsg42
S'ld-linux-x86-64.so.2'
p142
sg44
g45
sg46
g47
sg32
g33
sba(iFingerPrint.swirl
Dependency
p143
(dp144
g41
Nsg42
S'libc.so.6'
p145
sg44
g45
sg46
g47
sg32
g33
sba(iFingerPrint.swirl
Dependency
p146
(dp147
g41
Nsg42
S'libc.so.6'
p148
sg44
g45
sg46
S'GLIBC_2.2.5'
p149
sg32
g33
sba(iFingerPrint.swirl
Dependency
p150
(dp151
g41
Nsg42
S'libdl.so.2'
p152
sg44
g45
sg46
g47
sg32
g33
sba(iFingerPrint.swirl
Dependency
p153
(dp154
g41
Nsg42
S'libgcc_s.so.1'
p155
sg44
g45
sg46
g47
sg32
g33
sba(iFingerPrint.swirl
Dependency
p156
(dp157
g41
Nsg42
S'libm.so.6'
p158
sg44
g45
sg46
g47
sg32
g33
sbasg124
(lp159
sg126
(dp160
sg128
(lp161
g47
asg131
S'/home/clem/XsedeTests/compile/gordon/namd/bin/flipbinpdb'
p162
sg44
g45
sba(iFingerPrint.swirl
SwirlFile
p163
(dp164
g25
I01
sg26
(lp165
sg28
(lp166
sg30
(lp167
sg32
g33
sg34
S'170651ea4f057f6aedf7f8432c29b756'
p168
sg36
Nsg37
(lp169
(iFingerPrint.swirl
Dependency
p170
(dp171
g41
Nsg42
S'ld-linux-x86-64.so.2'
p172
sg44
g45
sg46
g47
sg32
g33
sba(iFingerPrint.swirl
Dependency
p173
(dp174
g41
Nsg42
S'libc.so.6'
p175
sg44
g45
sg46
g47
sg32
g33
sba(iFingerPrint.swirl
Dependency
p176
(dp177
g41
Nsg42
S'libc.so.6'
p178
sg44
g45
sg46
S'GLIBC_2.2.5'
p179
sg32
g33
sba(iFingerPrint.swirl
Dependency
p180
(dp181
g41
Nsg42
S'libdl.so.2'
p182
sg44
g45
sg46
g47
sg32
g33
sba(iFingerPrint.swirl
Dependency
p183
(dp184
g41
Nsg42
S'libgcc_s.so.1'
p185
sg44
g45
sg46
g47
sg32
g33
sba(iFingerPrint.swirl
Dependency
p186
(dp187
g41
Nsg42
S'libm.so.6'
p188
sg44
g45
sg46
g47
sg32
g33
sbasg124
(lp189
sg126
(dp190
sg128
(lp191
g47
asg131
S'/home/clem/XsedeTests/compile/gordon/namd/bin/flipdcd'
p192
sg44
g45
sba(iFingerPrint.swirl
SwirlFile
p193
(dp194
g25
I01
sg26
(lp195
sg28
(lp196
sg30
(lp197
sg32
g33
sg34
S'c0a299c7075d50305be415432e0ef5c4'
p198
sg36
Nsg37
(lp199
(iFingerPrint.swirl
Dependency
p200
(dp201
g41
Nsg42
S'ld-linux-x86-64.so.2'
p202
sg44
g45
sg46
g47
sg32
g33
sba(iFingerPrint.swirl
Dependency
p203
(dp204
g41
Nsg42
S'libc.so.6'
p205
sg44
g45
sg46
g47
sg32
g33
sba(iFingerPrint.swirl
Dependency
p206
(dp207
g41
Nsg42
S'libc.so.6'
p208
sg44
g45
sg46
S'GLIBC_2.2.5'
p209
sg32
g33
sba(iFingerPrint.swirl
Dependency
p210
(dp211
g41
Nsg42
S'libc.so.6'
p212
sg44
g45
sg46
S'GLIBC_2.3'
p213
sg32
g33
sba(iFingerPrint.swirl
Dependency
p214
(dp215
g41
Nsg42
S'libdl.so.2'
p216
sg44
g45
sg46
g47
sg32
g33
sba(iFingerPrint.swirl
Dependency
p217
(dp218
g41
Nsg42
S'libgcc_s.so.1'
p219
sg44
g45
sg46
g47
sg32
g33
sba(iFingerPrint.swirl
Dependency
p220
(dp221
g41
Nsg42
S'libm.so.6'
p222
sg44
g45
sg46
g47
sg32
g33
sbasg124
(lp223
sg126
(dp224
sg128
(lp225
g47
asg131
S'/home/clem/XsedeTests/compile/gordon/namd/bin/psfgen'
p226
sg44
g45
sba(iFingerPrint.swirl
SwirlFile
p227
(dp228
g26
(lp229
sg28
(lp230
sg30
(lp231
sg32
S'Data'
p232
sg34
S'3357dc3007fff11565962f75b8d8a3b9'
p233
sg36
Nsg37
(lp234
sg124
(lp235
sg126
(dp236
sg128
(lp237
sg131
S'/home/clem/XsedeTests/compile/gordon/namd/bin/charmrun'
p238
sg44
NsbasS'swirlFiles'
p239
(lp240
g23
a(iFingerPrint.swirl
SwirlFile
p241
(dp242
g25
I00
sg26
(lp243
sg28
(lp244
S'/lib64/ld-linux-x86-64.so.2'
p245
asg30
(lp246
sg32
g33
sg34
S'e6d5eba2fedd41492b902aaa092c50a2'
p247
sg36
S'glibc-2.5-58.el5_6.4'
p248
sg37
(lp249
sg124
(lp250
(iFingerPrint.swirl
Dependency
p251
(dp252
g41
Nsg42
S'ld-linux-x86-64.so.2'
p253
sg44
g45
sg46
g47
sg32
g33
sba(iFingerPrint.swirl
Dependency
p254
(dp255
g41
Nsg42
S'ld-linux-x86-64.so.2'
p256
sg44
g45
sg46
S'GLIBC_2.2.5'
p257
sg32
g33
sba(iFingerPrint.swirl
Dependency
p258
(dp259
g41
Nsg42
S'ld-linux-x86-64.so.2'
p260
sg44
g45
sg46
S'GLIBC_2.3'
p261
sg32
g33
sba(iFingerPrint.swirl
Dependency
p262
(dp263
g41
Nsg42
S'ld-linux-x86-64.so.2'
p264
sg44
g45
sg46
S'GLIBC_2.4'
p265
sg32
g33
sba(iFingerPrint.swirl
Dependency
p266
(dp267
g41
Nsg42
S'ld-linux-x86-64.so.2'
p268
sg44
g45
sg46
S'GLIBC_PRIVATE'
p269
sg32
g33
sbasg126
(dp270
sg128
(lp271
g47
asg131
S'/lib64/ld-2.5.so'
p272
sg44
g45
sba(iFingerPrint.swirl
SwirlFile
p273
(dp274
g25
I00
sg26
(lp275
sg28
(lp276
S'/lib64/libc.so.6'
p277
asg30
(lp278
sg32
g33
sg34
S'c44374b32d0cb75717ceae9406d75461'
p279
sg36
S'glibc-2.5-58.el5_6.4'
p280
sg37
(lp281
(iFingerPrint.swirl
Dependency
p282
(dp283
g41
Nsg42
S'ld-linux-x86-64.so.2'
p284
sg44
g45
sg46
g47
sg32
g33
sba(iFingerPrint.swirl
Dependency
p285
(dp286
g41
Nsg42
S'ld-linux-x86-64.so.2'
p287
sg44
g45
sg46
S'GLIBC_2.3'
p288
sg32
g33
sba(iFingerPrint.swirl
Dependency
p289
(dp290
g41
Nsg42
S'ld-linux-x86-64.so.2'
p291
sg44
g45
sg46
S'GLIBC_PRIVATE'
p292
sg32
g33
sbasg124
(lp293
(iFingerPrint.swirl
Dependency
p294
(dp295
g41
Nsg42
S'libc.so.6'
p296
sg44
g45
sg46
g47
sg32
g33
sba(iFingerPrint.swirl
Dependency
p297
(dp298
g41
Nsg42
S'libc.so.6'
p299
sg44
g45
sg46
S'GLIBC_2.2.5'
p300
sg32
g33
sba(iFingerPrint.swirl
Dependency
p301
(dp302
g41
Nsg42
S'libc.so.6'
p303
sg44
g45
sg46
S'GLIBC_2.2.6'
p304
sg32
g33
sba(iFingerPrint.swirl
Dependency
p305
(dp306
g41
Nsg42
S'libc.so.6'
p307
sg44
g45
sg46
S'GLIBC_2.3.2'
p308
sg32
g33
sba(iFingerPrint.swirl
Dependency
p309
(dp310
g41
Nsg42
S'libc.so.6'
p311
sg44
g45
sg46
S'GLIBC_2.3.3'
p312
sg32
g33
sba(iFingerPrint.swirl
Dependency
p313
(dp314
g41
Nsg42
S'libc.so.6'
p315
sg44
g45
sg46
S'GLIBC_2.3.4'
p316
sg32
g33
sba(iFingerPrint.swirl
Dependency
p317
(dp318
g41
Nsg42
S'libc.so.6'
p319
sg44
g45
sg46
S'GLIBC_2.3'
p320
sg32
g33
sba(iFingerPrint.swirl
Dependency
p321
(dp322
g41
Nsg42
S'libc.so.6'
p323
sg44
g45
sg46
S'GLIBC_2.4'
p324
sg32
g33
sba(iFingerPrint.swirl
Dependency
p325
(dp326
g41
Nsg42
S'libc.so.6'
p327
sg44
g45
sg46
S'GLIBC_2.5'
p328
sg32
g33
sba(iFingerPrint.swirl
Dependency
p329
(dp330
g41
Nsg42
S'libc.so.6'
p331
sg44
g45
sg46
S'GLIBC_PRIVATE'
p332
sg32
g33
sbasg126
(dp333
sg128
(lp334
g47
asg131
S'/lib64/libc-2.5.so'
p335
sg44
g45
sba(iFingerPrint.swirl
SwirlFile
p336
(dp337
g25
I00
sg26
(lp338
sg28
(lp339
S'/lib64/libdl.so.2'
p340
asg30
(lp341
sg32
g33
sg34
S'87fde6c2e5580be87586ee8e74326f65'
p342
sg36
S'glibc-2.5-58.el5_6.4'
p343
sg37
(lp344
(iFingerPrint.swirl
Dependency
p345
(dp346
g41
Nsg42
S'ld-linux-x86-64.so.2'
p347
sg44
g45
sg46
g47
sg32
g33
sba(iFingerPrint.swirl
Dependency
p348
(dp349
g41
Nsg42
S'ld-linux-x86-64.so.2'
p350
sg44
g45
sg46
S'GLIBC_PRIVATE'
p351
sg32
g33
sba(iFingerPrint.swirl
Dependency
p352
(dp353
g41
Nsg42
S'libc.so.6'
p354
sg44
g45
sg46
g47
sg32
g33
sba(iFingerPrint.swirl
Dependency
p355
(dp356
g41
Nsg42
S'libc.so.6'
p357
sg44
g45
sg46
S'GLIBC_2.2.5'
p358
sg32
g33
sba(iFingerPrint.swirl
Dependency
p359
(dp360
g41
Nsg42
S'libc.so.6'
p361
sg44
g45
sg46
S'GLIBC_PRIVATE'
p362
sg32
g33
sbasg124
(lp363
(iFingerPrint.swirl
Dependency
p364
(dp365
g41
Nsg42
S'libdl.so.2'
p366
sg44
g45
sg46
g47
sg32
g33
sba(iFingerPrint.swirl
Dependency
p367
(dp368
g41
Nsg42
S'libdl.so.2'
p369
sg44
g45
sg46
S'GLIBC_2.2.5'
p370
sg32
g33
sba(iFingerPrint.swirl
Dependency
p371
(dp372
g41
Nsg42
S'libdl.so.2'
p373
sg44
g45
sg46
S'GLIBC_2.3.3'
p374
sg32
g33
sba(iFingerPrint.swirl
Dependency
p375
(dp376
g41
Nsg42
S'libdl.so.2'
p377
sg44
g45
sg46
S'GLIBC_2.3.4'
p378
sg32
g33
sba(iFingerPrint.swirl
Dependency
p379
(dp380
g41
Nsg42
S'libdl.so.2'
p381
sg44
g45
sg46
S'GLIBC_PRIVATE'
p382
sg32
g33
sbasg126
(dp383
sg128
(lp384
g47
asg131
S'/lib64/libdl-2.5.so'
p385
sg44
g45
sba(iFingerPrint.swirl
SwirlFile
p386
(dp387
g25
I00
sg26
(lp388
sg28
(lp389
S'/home/clem/XsedeTests/compile/gordon/namd/fftwbin/lib/libfftw3f.so.3'
p390
asg30
(lp391
sg32
g33
sg34
S'ae44a3ad5bce6bb2eb744514710a9bb2'
p392
sg36
Nsg37
(lp393
(iFingerPrint.swirl
Dependency
p394
(dp395
g41
Nsg42
S'ld-linux-x86-64.so.2'
p396
sg44
g45
sg46
g47
sg32
g33
sba(iFingerPrint.swirl
Dependency
p397
(dp398
g41
Nsg42
S'libc.so.6'
p399
sg44
g45
sg46
g47
sg32
g33
sba(iFingerPrint.swirl
Dependency
p400
(dp401
g41
Nsg42
S'libc.so.6'
p402
sg44
g45
sg46
S'GLIBC_2.2.5'
p403
sg32
g33
sba(iFingerPrint.swirl
Dependency
p404
(dp405
g41
Nsg42
S'libdl.so.2'
p406
sg44
g45
sg46
g47
sg32
g33
sba(iFingerPrint.swirl
Dependency
p407
(dp408
g41
Nsg42
S'libgcc_s.so.1'
p409
sg44
g45
sg46
g47
sg32
g33
sba(iFingerPrint.swirl
Dependency
p410
(dp411
g41
Nsg42
S'libimf.so'
p412
sg44
g45
sg46
g47
sg32
g33
sba(iFingerPrint.swirl
Dependency
p413
(dp414
g41
Nsg42
S'libintlc.so.5'
p415
sg44
g45
sg46
g47
sg32
g33
sba(iFingerPrint.swirl
Dependency
p416
(dp417
g41
Nsg42
S'libm.so.6'
p418
sg44
g45
sg46
g47
sg32
g33
sba(iFingerPrint.swirl
Dependency
p419
(dp420
g41
Nsg42
S'libsvml.so'
p421
sg44
g45
sg46
g47
sg32
g33
sbasg124
(lp422
(iFingerPrint.swirl
Dependency
p423
(dp424
g41
Nsg42
S'libfftw3f.so.3'
p425
sg44
g45
sg46
g47
sg32
g33
sbasg126
(dp426
sg128
(lp427
g47
asg131
S'/home/clem/XsedeTests/compile/gordon/namd/fftwbin/lib/libfftw3f.so.3.3.2'
p428
sg44
g45
sba(iFingerPrint.swirl
SwirlFile
p429
(dp430
g25
I00
sg26
(lp431
sg28
(lp432
S'/lib64/libgcc_s.so.1'
p433
asg30
(lp434
sg32
g33
sg34
S'7a9d1dabdcf7d11c050bd86e944f36ba'
p435
sg36
S'libgcc-4.1.2-50.el5'
p436
sg37
(lp437
(iFingerPrint.swirl
Dependency
p438
(dp439
g41
Nsg42
S'ld-linux-x86-64.so.2'
p440
sg44
g45
sg46
g47
sg32
g33
sba(iFingerPrint.swirl
Dependency
p441
(dp442
g41
Nsg42
S'libc.so.6'
p443
sg44
g45
sg46
g47
sg32
g33
sba(iFingerPrint.swirl
Dependency
p444
(dp445
g41
Nsg42
S'libc.so.6'
p446
sg44
g45
sg46
S'GLIBC_2.2.5'
p447
sg32
g33
sba(iFingerPrint.swirl
Dependency
p448
(dp449
g41
Nsg42
S'libc.so.6'
p450
sg44
g45
sg46
S'GLIBC_2.4'
p451
sg32
g33
sbasg124
(lp452
(iFingerPrint.swirl
Dependency
p453
(dp454
g41
Nsg42
S'libgcc_s.so.1'
p455
sg44
g45
sg46
g47
sg32
g33
sba(iFingerPrint.swirl
Dependency
p456
(dp457
g41
Nsg42
S'libgcc_s.so.1'
p458
sg44
g45
sg46
S'GCC_3.0'
p459
sg32
g33
sba(iFingerPrint.swirl
Dependency
p460
(dp461
g41
Nsg42
S'libgcc_s.so.1'
p462
sg44
g45
sg46
S'GCC_3.3.1'
p463
sg32
g33
sba(iFingerPrint.swirl
Dependency
p464
(dp465
g41
Nsg42
S'libgcc_s.so.1'
p466
sg44
g45
sg46
S'GCC_3.3'
p467
sg32
g33
sba(iFingerPrint.swirl
Dependency
p468
(dp469
g41
Nsg42
S'libgcc_s.so.1'
p470
sg44
g45
sg46
S'GCC_3.4.2'
p471
sg32
g33
sba(iFingerPrint.swirl
Dependency
p472
(dp473
g41
Nsg42
S'libgcc_s.so.1'
p474
sg44
g45
sg46
S'GCC_3.4.4'
p475
sg32
g33
sba(iFingerPrint.swirl
Dependency
p476
(dp477
g41
Nsg42
S'libgcc_s.so.1'
p478
sg44
g45
sg46
S'GCC_3.4'
p479
sg32
g33
sba(iFingerPrint.swirl
Dependency
p480
(dp481
g41
Nsg42
S'libgcc_s.so.1'
p482
sg44
g45
sg46
S'GCC_4.0.0'
p483
sg32
g33
sba(iFingerPrint.swirl
Dependency
p484
(dp485
g41
Nsg42
S'libgcc_s.so.1'
p486
sg44
g45
sg46
S'GCC_4.2.0'
p487
sg32
g33
sbasg126
(dp488
sg128
(lp489
g47
asg131
S'/lib64/libgcc_s-4.1.2-20080825.so.1'
p490
sg44
g45
sba(iFingerPrint.swirl
SwirlFile
p491
(dp492
g25
I00
sg26
(lp493
sg28
(lp494
sg30
(lp495
sg32
g33
sg34
S'fe20a9b2d55d85ceb8e147ec17695fec'
p496
sg36
S'intel-openmp-256-12.1-7'
p497
sg37
(lp498
(iFingerPrint.swirl
Dependency
p499
(dp500
g41
Nsg42
S'ld-linux-x86-64.so.2'
p501
sg44
g45
sg46
g47
sg32
g33
sba(iFingerPrint.swirl
Dependency
p502
(dp503
g41
Nsg42
S'libc.so.6'
p504
sg44
g45
sg46
g47
sg32
g33
sba(iFingerPrint.swirl
Dependency
p505
(dp506
g41
Nsg42
S'libc.so.6'
p507
sg44
g45
sg46
S'GLIBC_2.2.5'
p508
sg32
g33
sba(iFingerPrint.swirl
Dependency
p509
(dp510
g41
Nsg42
S'libintlc.so.5'
p511
sg44
g45
sg46
g47
sg32
g33
sbasg124
(lp512
(iFingerPrint.swirl
Dependency
p513
(dp514
g41
Nsg42
S'libimf.so'
p515
sg44
g45
sg46
g47
sg32
g33
sbasg126
(dp516
sg128
(lp517
g47
asg131
S'/opt/intel/composer_xe_2011_sp1.7.256/compiler/lib/intel64/libimf.so'
p518
sg44
g45
sba(iFingerPrint.swirl
SwirlFile
p519
(dp520
g25
I00
sg26
(lp521
sg28
(lp522
sg30
(lp523
sg32
g33
sg34
S'36032bdb404a9b22052fca9be45f0032'
p524
sg36
S'intel-openmp-256-12.1-7'
p525
sg37
(lp526
(iFingerPrint.swirl
Dependency
p527
(dp528
g41
Nsg42
S'ld-linux-x86-64.so.2'
p529
sg44
g45
sg46
g47
sg32
g33
sba(iFingerPrint.swirl
Dependency
p530
(dp531
g41
Nsg42
S'libc.so.6'
p532
sg44
g45
sg46
g47
sg32
g33
sba(iFingerPrint.swirl
Dependency
p533
(dp534
g41
Nsg42
S'libc.so.6'
p535
sg44
g45
sg46
S'GLIBC_2.2.5'
p536
sg32
g33
sbasg124
(lp537
(iFingerPrint.swirl
Dependency
p538
(dp539
g41
Nsg42
S'libintlc.so.5'
p540
sg44
g45
sg46
g47
sg32
g33
sbasg126
(dp541
sg128
(lp542
g47
asg131
S'/opt/intel/composer_xe_2011_sp1.7.256/compiler/lib/intel64/libintlc.so.5'
p543
sg44
g45
sba(iFingerPrint.swirl
SwirlFile
p544
(dp545
g25
I00
sg26
(lp546
sg28
(lp547
S'/lib64/libm.so.6'
p548
asg30
(lp549
sg32
g33
sg34
S'183a2f04a24da2db918ea503a8d401fe'
p550
sg36
S'glibc-2.5-58.el5_6.4'
p551
sg37
(lp552
(iFingerPrint.swirl
Dependency
p553
(dp554
g41
Nsg42
S'ld-linux-x86-64.so.2'
p555
sg44
g45
sg46
g47
sg32
g33
sba(iFingerPrint.swirl
Dependency
p556
(dp557
g41
Nsg42
S'libc.so.6'
p558
sg44
g45
sg46
g47
sg32
g33
sba(iFingerPrint.swirl
Dependency
p559
(dp560
g41
Nsg42
S'libc.so.6'
p561
sg44
g45
sg46
S'GLIBC_2.2.5'
p562
sg32
g33
sbasg124
(lp563
(iFingerPrint.swirl
Dependency
p564
(dp565
g41
Nsg42
S'libm.so.6'
p566
sg44
g45
sg46
g47
sg32
g33
sba(iFingerPrint.swirl
Dependency
p567
(dp568
g41
Nsg42
S'libm.so.6'
p569
sg44
g45
sg46
S'GLIBC_2.2.5'
p570
sg32
g33
sba(iFingerPrint.swirl
Dependency
p571
(dp572
g41
Nsg42
S'libm.so.6'
p573
sg44
g45
sg46
S'GLIBC_2.4'
p574
sg32
g33
sbasg126
(dp575
sg128
(lp576
g47
asg131
S'/lib64/libm-2.5.so'
p577
sg44
g45
sba(iFingerPrint.swirl
SwirlFile
p578
(dp579
g25
I00
sg26
(lp580
sg28
(lp581
sg30
(lp582
sg32
g33
sg34
S'b9303381d5cad3c0aa8644eae40e2b2a'
p583
sg36
S'intel-openmp-256-12.1-7'
p584
sg37
(lp585
(iFingerPrint.swirl
Dependency
p586
(dp587
g41
Nsg42
S'ld-linux-x86-64.so.2'
p588
sg44
g45
sg46
g47
sg32
g33
sba(iFingerPrint.swirl
Dependency
p589
(dp590
g41
Nsg42
S'libc.so.6'
p591
sg44
g45
sg46
g47
sg32
g33
sba(iFingerPrint.swirl
Dependency
p592
(dp593
g41
Nsg42
S'libintlc.so.5'
p594
sg44
g45
sg46
g47
sg32
g33
sbasg124
(lp595
(iFingerPrint.swirl
Dependency
p596
(dp597
g41
Nsg42
S'libsvml.so'
p598
sg44
g45
sg46
g47
sg32
g33
sbasg126
(dp599
sg128
(lp600
g47
asg131
S'/opt/intel/composer_xe_2011_sp1.7.256/compiler/lib/intel64/libsvml.so'
p601
sg44
g45
sba(iFingerPrint.swirl
SwirlFile
p602
(dp603
g25
I00
sg26
(lp604
sg28
(lp605
S'/usr/lib64/libibumad.so.3'
p606
asg30
(lp607
sg32
g33
sg34
S'b93051b085b3fa3839715471e2634462'
p608
sg36
S'libibumad-1.3.7-1'
p609
sg37
(lp610
(iFingerPrint.swirl
Dependency
p611
(dp612
g41
Nsg42
S'ld-linux-x86-64.so.2'
p613
sg44
g45
sg46
g47
sg32
g33
sba(iFingerPrint.swirl
Dependency
p614
(dp615
g41
Nsg42
S'libc.so.6'
p616
sg44
g45
sg46
g47
sg32
g33
sba(iFingerPrint.swirl
Dependency
p617
(dp618
g41
Nsg42
S'libc.so.6'
p619
sg44
g45
sg46
S'GLIBC_2.2.5'
p620
sg32
g33
sba(iFingerPrint.swirl
Dependency
p621
(dp622
g41
Nsg42
S'libc.so.6'
p623
sg44
g45
sg46
S'GLIBC_2.3.4'
p624
sg32
g33
sba(iFingerPrint.swirl
Dependency
p625
(dp626
g41
Nsg42
S'libc.so.6'
p627
sg44
g45
sg46
S'GLIBC_2.3'
p628
sg32
g33
sba(iFingerPrint.swirl
Dependency
p629
(dp630
g41
Nsg42
S'libc.so.6'
p631
sg44
g45
sg46
S'GLIBC_2.4'
p632
sg32
g33
sbasg124
(lp633
(iFingerPrint.swirl
Dependency
p634
(dp635
g41
Nsg42
S'libibumad.so.3'
p636
sg44
g45
sg46
g47
sg32
g33
sba(iFingerPrint.swirl
Dependency
p637
(dp638
g41
Nsg42
S'libibumad.so.3'
p639
sg44
g45
sg46
S'IBUMAD_1.0'
p640
sg32
g33
sbasg126
(dp641
sg128
(lp642
g47
asg131
S'/usr/lib64/libibumad.so.3.0.2'
p643
sg44
g45
sba(iFingerPrint.swirl
SwirlFile
p644
(dp645
g25
I00
sg26
(lp646
sg28
(lp647
S'/usr/lib64/libibverbs.so.1'
p648
asg30
(lp649
sg32
g33
sg34
S'dab5699d5e375fff7b5d1dec0e179283'
p650
sg36
S'libibverbs-1.1.4-1.23.g6ccf63e'
p651
sg37
(lp652
(iFingerPrint.swirl
Dependency
p653
(dp654
g41
Nsg42
S'ld-linux-x86-64.so.2'
p655
sg44
g45
sg46
g47
sg32
g33
sba(iFingerPrint.swirl
Dependency
p656
(dp657
g41
Nsg42
S'libc.so.6'
p658
sg44
g45
sg46
g47
sg32
g33
sba(iFingerPrint.swirl
Dependency
p659
(dp660
g41
Nsg42
S'libc.so.6'
p661
sg44
g45
sg46
S'GLIBC_2.2.5'
p662
sg32
g33
sba(iFingerPrint.swirl
Dependency
p663
(dp664
g41
Nsg42
S'libc.so.6'
p665
sg44
g45
sg46
S'GLIBC_2.3.4'
p666
sg32
g33
sba(iFingerPrint.swirl
Dependency
p667
(dp668
g41
Nsg42
S'libc.so.6'
p669
sg44
g45
sg46
S'GLIBC_2.4'
p670
sg32
g33
sba(iFingerPrint.swirl
Dependency
p671
(dp672
g41
Nsg42
S'libdl.so.2'
p673
sg44
g45
sg46
g47
sg32
g33
sba(iFingerPrint.swirl
Dependency
p674
(dp675
g41
Nsg42
S'libdl.so.2'
p676
sg44
g45
sg46
S'GLIBC_2.2.5'
p677
sg32
g33
sba(iFingerPrint.swirl
Dependency
p678
(dp679
g41
Nsg42
S'libpthread.so.0'
p680
sg44
g45
sg46
g47
sg32
g33
sba(iFingerPrint.swirl
Dependency
p681
(dp682
g41
Nsg42
S'libpthread.so.0'
p683
sg44
g45
sg46
S'GLIBC_2.2.5'
p684
sg32
g33
sba(iFingerPrint.swirl
Dependency
p685
(dp686
g41
Nsg42
S'libpthread.so.0'
p687
sg44
g45
sg46
S'GLIBC_2.3.2'
p688
sg32
g33
sbasg124
(lp689
(iFingerPrint.swirl
Dependency
p690
(dp691
g41
Nsg42
S'libibverbs.so.1'
p692
sg44
g45
sg46
g47
sg32
g33
sba(iFingerPrint.swirl
Dependency
p693
(dp694
g41
Nsg42
S'libibverbs.so.1'
p695
sg44
g45
sg46
S'IBVERBS_1.0'
p696
sg32
g33
sba(iFingerPrint.swirl
Dependency
p697
(dp698
g41
Nsg42
S'libibverbs.so.1'
p699
sg44
g45
sg46
S'IBVERBS_1.1'
p700
sg32
g33
sbasg126
(dp701
sg128
(lp702
g47
asg131
S'/usr/lib64/libibverbs.so.1.0.0'
p703
sg44
g45
sba(iFingerPrint.swirl
SwirlFile
p704
(dp705
g25
I00
sg26
(lp706
sg28
(lp707
S'/lib64/libpthread.so.0'
p708
asg30
(lp709
sg32
g33
sg34
S'f886a197c76e1c1c6da82634fb6b6f05'
p710
sg36
S'glibc-2.5-58.el5_6.4'
p711
sg37
(lp712
(iFingerPrint.swirl
Dependency
p713
(dp714
g41
Nsg42
S'ld-linux-x86-64.so.2'
p715
sg44
g45
sg46
g47
sg32
g33
sba(iFingerPrint.swirl
Dependency
p716
(dp717
g41
Nsg42
S'ld-linux-x86-64.so.2'
p718
sg44
g45
sg46
S'GLIBC_2.2.5'
p719
sg32
g33
sba(iFingerPrint.swirl
Dependency
p720
(dp721
g41
Nsg42
S'ld-linux-x86-64.so.2'
p722
sg44
g45
sg46
S'GLIBC_2.3'
p723
sg32
g33
sba(iFingerPrint.swirl
Dependency
p724
(dp725
g41
Nsg42
S'ld-linux-x86-64.so.2'
p726
sg44
g45
sg46
S'GLIBC_PRIVATE'
p727
sg32
g33
sba(iFingerPrint.swirl
Dependency
p728
(dp729
g41
Nsg42
S'libc.so.6'
p730
sg44
g45
sg46
g47
sg32
g33
sba(iFingerPrint.swirl
Dependency
p731
(dp732
g41
Nsg42
S'libc.so.6'
p733
sg44
g45
sg46
S'GLIBC_2.2.5'
p734
sg32
g33
sba(iFingerPrint.swirl
Dependency
p735
(dp736
g41
Nsg42
S'libc.so.6'
p737
sg44
g45
sg46
S'GLIBC_2.3.2'
p738
sg32
g33
sba(iFingerPrint.swirl
Dependency
p739
(dp740
g41
Nsg42
S'libc.so.6'
p741
sg44
g45
sg46
S'GLIBC_PRIVATE'
p742
sg32
g33
sbasg124
(lp743
(iFingerPrint.swirl
Dependency
p744
(dp745
g41
Nsg42
S'libpthread.so.0'
p746
sg44
g45
sg46
g47
sg32
g33
sba(iFingerPrint.swirl
Dependency
p747
(dp748
g41
Nsg42
S'libpthread.so.0'
p749
sg44
g45
sg46
S'GLIBC_2.2.5'
p750
sg32
g33
sba(iFingerPrint.swirl
Dependency
p751
(dp752
g41
Nsg42
S'libpthread.so.0'
p753
sg44
g45
sg46
S'GLIBC_2.2.6'
p754
sg32
g33
sba(iFingerPrint.swirl
Dependency
p755
(dp756
g41
Nsg42
S'libpthread.so.0'
p757
sg44
g45
sg46
S'GLIBC_2.3.2'
p758
sg32
g33
sba(iFingerPrint.swirl
Dependency
p759
(dp760
g41
Nsg42
S'libpthread.so.0'
p761
sg44
g45
sg46
S'GLIBC_2.3.3'
p762
sg32
g33
sba(iFingerPrint.swirl
Dependency
p763
(dp764
g41
Nsg42
S'libpthread.so.0'
p765
sg44
g45
sg46
S'GLIBC_2.3.4'
p766
sg32
g33
sba(iFingerPrint.swirl
Dependency
p767
(dp768
g41
Nsg42
S'libpthread.so.0'
p769
sg44
g45
sg46
S'GLIBC_2.4'
p770
sg32
g33
sba(iFingerPrint.swirl
Dependency
p771
(dp772
g41
Nsg42
S'libpthread.so.0'
p773
sg44
g45
sg46
S'GLIBC_PRIVATE'
p774
sg32
g33
sbasg126
(dp775
sg128
(lp776
g47
asg131
S'/lib64/libpthread-2.5.so'
p777
sg44
g45
sba(iFingerPrint.swirl
SwirlFile
p778
(dp779
g25
I00
sg26
(lp780
sg28
(lp781
S'/opt/mvapich2/intel/ib/lib/liblimic2.so.0'
p782
asg30
(lp783
sg32
g33
sg34
S'9b961ab00c5daaa7add8a8e913cd9ece'
p784
sg36
S'mvapich2_intel_ib-1.8a1p1-1'
p785
sg37
(lp786
(iFingerPrint.swirl
Dependency
p787
(dp788
g41
Nsg42
S'ld-linux-x86-64.so.2'
p789
sg44
g45
sg46
g47
sg32
g33
sba(iFingerPrint.swirl
Dependency
p790
(dp791
g41
Nsg42
S'libc.so.6'
p792
sg44
g45
sg46
g47
sg32
g33
sba(iFingerPrint.swirl
Dependency
p793
(dp794
g41
Nsg42
S'libc.so.6'
p795
sg44
g45
sg46
S'GLIBC_2.2.5'
p796
sg32
g33
sbasg124
(lp797
(iFingerPrint.swirl
Dependency
p798
(dp799
g41
Nsg42
S'liblimic2.so.0'
p800
sg44
g45
sg46
g47
sg32
g33
sbasg126
(dp801
sg128
(lp802
g47
asg131
S'/opt/mvapich2/intel/ib/lib/liblimic2.so.0.0.0'
p803
sg44
g45
sba(iFingerPrint.swirl
SwirlFile
p804
(dp805
g25
I00
sg26
(lp806
sg28
(lp807
S'/opt/mvapich2/intel/ib/lib/libmpichcxx.so.3'
p808
asg30
(lp809
sg32
g33
sg34
S'45479e5eea36635c3ef5c3e208cdc5f8'
p810
sg36
S'mvapich2_intel_ib-1.8a1p1-1'
p811
sg37
(lp812
(iFingerPrint.swirl
Dependency
p813
(dp814
g41
Nsg42
S'ld-linux-x86-64.so.2'
p815
sg44
g45
sg46
g47
sg32
g33
sba(iFingerPrint.swirl
Dependency
p816
(dp817
g41
Nsg42
S'libc.so.6'
p818
sg44
g45
sg46
g47
sg32
g33
sba(iFingerPrint.swirl
Dependency
p819
(dp820
g41
Nsg42
S'libc.so.6'
p821
sg44
g45
sg46
S'GLIBC_2.2.5'
p822
sg32
g33
sba(iFingerPrint.swirl
Dependency
p823
(dp824
g41
Nsg42
S'libdl.so.2'
p825
sg44
g45
sg46
g47
sg32
g33
sba(iFingerPrint.swirl
Dependency
p826
(dp827
g41
Nsg42
S'libgcc_s.so.1'
p828
sg44
g45
sg46
g47
sg32
g33
sba(iFingerPrint.swirl
Dependency
p829
(dp830
g41
Nsg42
S'libgcc_s.so.1'
p831
sg44
g45
sg46
S'GCC_3.0'
p832
sg32
g33
sba(iFingerPrint.swirl
Dependency
p833
(dp834
g41
Nsg42
S'libibumad.so.3'
p835
sg44
g45
sg46
g47
sg32
g33
sba(iFingerPrint.swirl
Dependency
p836
(dp837
g41
Nsg42
S'libibverbs.so.1'
p838
sg44
g45
sg46
g47
sg32
g33
sba(iFingerPrint.swirl
Dependency
p839
(dp840
g41
Nsg42
S'libimf.so'
p841
sg44
g45
sg46
g47
sg32
g33
sba(iFingerPrint.swirl
Dependency
p842
(dp843
g41
Nsg42
S'libintlc.so.5'
p844
sg44
g45
sg46
g47
sg32
g33
sba(iFingerPrint.swirl
Dependency
p845
(dp846
g41
Nsg42
S'liblimic2.so.0'
p847
sg44
g45
sg46
g47
sg32
g33
sba(iFingerPrint.swirl
Dependency
p848
(dp849
g41
Nsg42
S'libmpich.so.3'
p850
sg44
g45
sg46
g47
sg32
g33
sba(iFingerPrint.swirl
Dependency
p851
(dp852
g41
Nsg42
S'libm.so.6'
p853
sg44
g45
sg46
g47
sg32
g33
sba(iFingerPrint.swirl
Dependency
p854
(dp855
g41
Nsg42
S'libpthread.so.0'
p856
sg44
g45
sg46
g47
sg32
g33
sba(iFingerPrint.swirl
Dependency
p857
(dp858
g41
Nsg42
S'librdmacm.so.1'
p859
sg44
g45
sg46
g47
sg32
g33
sba(iFingerPrint.swirl
Dependency
p860
(dp861
g41
Nsg42
S'librt.so.1'
p862
sg44
g45
sg46
g47
sg32
g33
sba(iFingerPrint.swirl
Dependency
p863
(dp864
g41
Nsg42
S'libstdc++.so.6'
p865
sg44
g45
sg46
g47
sg32
g33
sba(iFingerPrint.swirl
Dependency
p866
(dp867
g41
Nsg42
S'libstdc++.so.6'
p868
sg44
g45
sg46
S'CXXABI_1.3'
p869
sg32
g33
sba(iFingerPrint.swirl
Dependency
p870
(dp871
g41
Nsg42
S'libstdc++.so.6'
p872
sg44
g45
sg46
S'GLIBCXX_3.4'
p873
sg32
g33
sba(iFingerPrint.swirl
Dependency
p874
(dp875
g41
Nsg42
S'libsvml.so'
p876
sg44
g45
sg46
g47
sg32
g33
sbasg124
(lp877
(iFingerPrint.swirl
Dependency
p878
(dp879
g41
Nsg42
S'libmpichcxx.so.3'
p880
sg44
g45
sg46
g47
sg32
g33
sbasg126
(dp881
sg128
(lp882
g47
asg131
S'/opt/mvapich2/intel/ib/lib/libmpichcxx.so.3.3'
p883
sg44
g45
sba(iFingerPrint.swirl
SwirlFile
p884
(dp885
g25
I00
sg26
(lp886
sg28
(lp887
S'/opt/mvapich2/intel/ib/lib/libmpich.so.3'
p888
asg30
(lp889
sg32
g33
sg34
S'25b6f49e6cc0a70acecdc7f91f6326a2'
p890
sg36
S'mvapich2_intel_ib-1.8a1p1-1'
p891
sg37
(lp892
(iFingerPrint.swirl
Dependency
p893
(dp894
g41
Nsg42
S'ld-linux-x86-64.so.2'
p895
sg44
g45
sg46
g47
sg32
g33
sba(iFingerPrint.swirl
Dependency
p896
(dp897
g41
Nsg42
S'ld-linux-x86-64.so.2'
p898
sg44
g45
sg46
S'GLIBC_2.3'
p899
sg32
g33
sba(iFingerPrint.swirl
Dependency
p900
(dp901
g41
Nsg42
S'libc.so.6'
p902
sg44
g45
sg46
g47
sg32
g33
sba(iFingerPrint.swirl
Dependency
p903
(dp904
g41
Nsg42
S'libc.so.6'
p905
sg44
g45
sg46
S'GLIBC_2.2.5'
p906
sg32
g33
sba(iFingerPrint.swirl
Dependency
p907
(dp908
g41
Nsg42
S'libc.so.6'
p909
sg44
g45
sg46
S'GLIBC_2.3.2'
p910
sg32
g33
sba(iFingerPrint.swirl
Dependency
p911
(dp912
g41
Nsg42
S'libc.so.6'
p913
sg44
g45
sg46
S'GLIBC_2.3.3'
p914
sg32
g33
sba(iFingerPrint.swirl
Dependency
p915
(dp916
g41
Nsg42
S'libc.so.6'
p917
sg44
g45
sg46
S'GLIBC_2.3.4'
p918
sg32
g33
sba(iFingerPrint.swirl
Dependency
p919
(dp920
g41
Nsg42
S'libc.so.6'
p921
sg44
g45
sg46
S'GLIBC_2.3'
p922
sg32
g33
sba(iFingerPrint.swirl
Dependency
p923
(dp924
g41
Nsg42
S'libc.so.6'
p925
sg44
g45
sg46
S'GLIBC_2.4'
p926
sg32
g33
sba(iFingerPrint.swirl
Dependency
p927
(dp928
g41
Nsg42
S'libdl.so.2'
p929
sg44
g45
sg46
g47
sg32
g33
sba(iFingerPrint.swirl
Dependency
p930
(dp931
g41
Nsg42
S'libgcc_s.so.1'
p932
sg44
g45
sg46
g47
sg32
g33
sba(iFingerPrint.swirl
Dependency
p933
(dp934
g41
Nsg42
S'libibumad.so.3'
p935
sg44
g45
sg46
g47
sg32
g33
sba(iFingerPrint.swirl
Dependency
p936
(dp937
g41
Nsg42
S'libibumad.so.3'
p938
sg44
g45
sg46
S'IBUMAD_1.0'
p939
sg32
g33
sba(iFingerPrint.swirl
Dependency
p940
(dp941
g41
Nsg42
S'libibverbs.so.1'
p942
sg44
g45
sg46
g47
sg32
g33
sba(iFingerPrint.swirl
Dependency
p943
(dp944
g41
Nsg42
S'libibverbs.so.1'
p945
sg44
g45
sg46
S'IBVERBS_1.0'
p946
sg32
g33
sba(iFingerPrint.swirl
Dependency
p947
(dp948
g41
Nsg42
S'libibverbs.so.1'
p949
sg44
g45
sg46
S'IBVERBS_1.1'
p950
sg32
g33
sba(iFingerPrint.swirl
Dependency
p951
(dp952
g41
Nsg42
S'libimf.so'
p953
sg44
g45
sg46
g47
sg32
g33
sba(iFingerPrint.swirl
Dependency
p954
(dp955
g41
Nsg42
S'libintlc.so.5'
p956
sg44
g45
sg46
g47
sg32
g33
sba(iFingerPrint.swirl
Dependency
p957
(dp958
g41
Nsg42
S'liblimic2.so.0'
p959
sg44
g45
sg46
g47
sg32
g33
sba(iFingerPrint.swirl
Dependency
p960
(dp961
g41
Nsg42
S'libm.so.6'
p962
sg44
g45
sg46
g47
sg32
g33
sba(iFingerPrint.swirl
Dependency
p963
(dp964
g41
Nsg42
S'libpthread.so.0'
p965
sg44
g45
sg46
g47
sg32
g33
sba(iFingerPrint.swirl
Dependency
p966
(dp967
g41
Nsg42
S'libpthread.so.0'
p968
sg44
g45
sg46
S'GLIBC_2.2.5'
p969
sg32
g33
sba(iFingerPrint.swirl
Dependency
p970
(dp971
g41
Nsg42
S'libpthread.so.0'
p972
sg44
g45
sg46
S'GLIBC_2.3.2'
p973
sg32
g33
sba(iFingerPrint.swirl
Dependency
p974
(dp975
g41
Nsg42
S'libpthread.so.0'
p976
sg44
g45
sg46
S'GLIBC_2.3.4'
p977
sg32
g33
sba(iFingerPrint.swirl
Dependency
p978
(dp979
g41
Nsg42
S'librdmacm.so.1'
p980
sg44
g45
sg46
g47
sg32
g33
sba(iFingerPrint.swirl
Dependency
p981
(dp982
g41
Nsg42
S'librdmacm.so.1'
p983
sg44
g45
sg46
S'RDMACM_1.0'
p984
sg32
g33
sba(iFingerPrint.swirl
Dependency
p985
(dp986
g41
Nsg42
S'librt.so.1'
p987
sg44
g45
sg46
g47
sg32
g33
sba(iFingerPrint.swirl
Dependency
p988
(dp989
g41
Nsg42
S'librt.so.1'
p990
sg44
g45
sg46
S'GLIBC_2.2.5'
p991
sg32
g33
sba(iFingerPrint.swirl
Dependency
p992
(dp993
g41
Nsg42
S'libsvml.so'
p994
sg44
g45
sg46
g47
sg32
g33
sbasg124
(lp995
(iFingerPrint.swirl
Dependency
p996
(dp997
g41
Nsg42
S'libmpich.so.3'
p998
sg44
g45
sg46
g47
sg32
g33
sbasg126
(dp999
sg128
(lp1000
g47
asg131
S'/opt/mvapich2/intel/ib/lib/libmpich.so.3.3'
p1001
sg44
g45
sba(iFingerPrint.swirl
SwirlFile
p1002
(dp1003
g25
I00
sg26
(lp1004
sg28
(lp1005
S'/usr/lib64/librdmacm.so.1'
p1006
asg30
(lp1007
sg32
g33
sg34
S'83e1e8c2259a7e950f9812a011735beb'
p1008
sg36
S'librdmacm-1.0.14.1-1'
p1009
sg37
(lp1010
(iFingerPrint.swirl
Dependency
p1011
(dp1012
g41
Nsg42
S'ld-linux-x86-64.so.2'
p1013
sg44
g45
sg46
g47
sg32
g33
sba(iFingerPrint.swirl
Dependency
p1014
(dp1015
g41
Nsg42
S'libc.so.6'
p1016
sg44
g45
sg46
g47
sg32
g33
sba(iFingerPrint.swirl
Dependency
p1017
(dp1018
g41
Nsg42
S'libc.so.6'
p1019
sg44
g45
sg46
S'GLIBC_2.2.5'
p1020
sg32
g33
sba(iFingerPrint.swirl
Dependency
p1021
(dp1022
g41
Nsg42
S'libc.so.6'
p1023
sg44
g45
sg46
S'GLIBC_2.3.2'
p1024
sg32
g33
sba(iFingerPrint.swirl
Dependency
p1025
(dp1026
g41
Nsg42
S'libc.so.6'
p1027
sg44
g45
sg46
S'GLIBC_2.3.4'
p1028
sg32
g33
sba(iFingerPrint.swirl
Dependency
p1029
(dp1030
g41
Nsg42
S'libc.so.6'
p1031
sg44
g45
sg46
S'GLIBC_2.4'
p1032
sg32
g33
sba(iFingerPrint.swirl
Dependency
p1033
(dp1034
g41
Nsg42
S'libibverbs.so.1'
p1035
sg44
g45
sg46
g47
sg32
g33
sba(iFingerPrint.swirl
Dependency
p1036
(dp1037
g41
Nsg42
S'libibverbs.so.1'
p1038
sg44
g45
sg46
S'IBVERBS_1.0'
p1039
sg32
g33
sba(iFingerPrint.swirl
Dependency
p1040
(dp1041
g41
Nsg42
S'libibverbs.so.1'
p1042
sg44
g45
sg46
S'IBVERBS_1.1'
p1043
sg32
g33
sbasg124
(lp1044
(iFingerPrint.swirl
Dependency
p1045
(dp1046
g41
Nsg42
S'librdmacm.so.1'
p1047
sg44
g45
sg46
g47
sg32
g33
sba(iFingerPrint.swirl
Dependency
p1048
(dp1049
g41
Nsg42
S'librdmacm.so.1'
p1050
sg44
g45
sg46
S'RDMACM_1.0'
p1051
sg32
g33
sbasg126
(dp1052
sg128
(lp1053
g47
asg131
S'/usr/lib64/librdmacm.so.1.0.0'
p1054
sg44
g45
sba(iFingerPrint.swirl
SwirlFile
p1055
(dp1056
g25
I00
sg26
(lp1057
sg28
(lp1058
S'/lib64/librt.so.1'
p1059
asg30
(lp1060
sg32
g33
sg34
S'75972dde6297705248f6a8a164cd556f'
p1061
sg36
S'glibc-2.5-58.el5_6.4'
p1062
sg37
(lp1063
(iFingerPrint.swirl
Dependency
p1064
(dp1065
g41
Nsg42
S'ld-linux-x86-64.so.2'
p1066
sg44
g45
sg46
g47
sg32
g33
sba(iFingerPrint.swirl
Dependency
p1067
(dp1068
g41
Nsg42
S'ld-linux-x86-64.so.2'
p1069
sg44
g45
sg46
S'GLIBC_PRIVATE'
p1070
sg32
g33
sba(iFingerPrint.swirl
Dependency
p1071
(dp1072
g41
Nsg42
S'libc.so.6'
p1073
sg44
g45
sg46
g47
sg32
g33
sba(iFingerPrint.swirl
Dependency
p1074
(dp1075
g41
Nsg42
S'libc.so.6'
p1076
sg44
g45
sg46
S'GLIBC_2.2.5'
p1077
sg32
g33
sba(iFingerPrint.swirl
Dependency
p1078
(dp1079
g41
Nsg42
S'libc.so.6'
p1080
sg44
g45
sg46
S'GLIBC_2.3.2'
p1081
sg32
g33
sba(iFingerPrint.swirl
Dependency
p1082
(dp1083
g41
Nsg42
S'libc.so.6'
p1084
sg44
g45
sg46
S'GLIBC_PRIVATE'
p1085
sg32
g33
sba(iFingerPrint.swirl
Dependency
p1086
(dp1087
g41
Nsg42
S'libpthread.so.0'
p1088
sg44
g45
sg46
g47
sg32
g33
sba(iFingerPrint.swirl
Dependency
p1089
(dp1090
g41
Nsg42
S'libpthread.so.0'
p1091
sg44
g45
sg46
S'GLIBC_2.2.5'
p1092
sg32
g33
sba(iFingerPrint.swirl
Dependency
p1093
(dp1094
g41
Nsg42
S'libpthread.so.0'
p1095
sg44
g45
sg46
S'GLIBC_PRIVATE'
p1096
sg32
g33
sbasg124
(lp1097
(iFingerPrint.swirl
Dependency
p1098
(dp1099
g41
Nsg42
S'librt.so.1'
p1100
sg44
g45
sg46
g47
sg32
g33
sba(iFingerPrint.swirl
Dependency
p1101
(dp1102
g41
Nsg42
S'librt.so.1'
p1103
sg44
g45
sg46
S'GLIBC_2.2.5'
p1104
sg32
g33
sba(iFingerPrint.swirl
Dependency
p1105
(dp1106
g41
Nsg42
S'librt.so.1'
p1107
sg44
g45
sg46
S'GLIBC_2.3.3'
p1108
sg32
g33
sba(iFingerPrint.swirl
Dependency
p1109
(dp1110
g41
Nsg42
S'librt.so.1'
p1111
sg44
g45
sg46
S'GLIBC_2.3.4'
p1112
sg32
g33
sba(iFingerPrint.swirl
Dependency
p1113
(dp1114
g41
Nsg42
S'librt.so.1'
p1115
sg44
g45
sg46
S'GLIBC_2.4'
p1116
sg32
g33
sbasg126
(dp1117
sg128
(lp1118
g47
asg131
S'/lib64/librt-2.5.so'
p1119
sg44
g45
sba(iFingerPrint.swirl
SwirlFile
p1120
(dp1121
g25
I00
sg26
(lp1122
sg28
(lp1123
S'/usr/lib64/libstdc++.so.6'
p1124
asg30
(lp1125
sg32
g33
sg34
S'c0e16491640b801fe444a8a568fe7ed8'
p1126
sg36
S'libstdc++-4.1.2-50.el5'
p1127
sg37
(lp1128
(iFingerPrint.swirl
Dependency
p1129
(dp1130
g41
Nsg42
S'ld-linux-x86-64.so.2'
p1131
sg44
g45
sg46
g47
sg32
g33
sba(iFingerPrint.swirl
Dependency
p1132
(dp1133
g41
Nsg42
S'ld-linux-x86-64.so.2'
p1134
sg44
g45
sg46
S'GLIBC_2.3'
p1135
sg32
g33
sba(iFingerPrint.swirl
Dependency
p1136
(dp1137
g41
Nsg42
S'libc.so.6'
p1138
sg44
g45
sg46
g47
sg32
g33
sba(iFingerPrint.swirl
Dependency
p1139
(dp1140
g41
Nsg42
S'libc.so.6'
p1141
sg44
g45
sg46
S'GLIBC_2.2.5'
p1142
sg32
g33
sba(iFingerPrint.swirl
Dependency
p1143
(dp1144
g41
Nsg42
S'libc.so.6'
p1145
sg44
g45
sg46
S'GLIBC_2.3.2'
p1146
sg32
g33
sba(iFingerPrint.swirl
Dependency
p1147
(dp1148
g41
Nsg42
S'libc.so.6'
p1149
sg44
g45
sg46
S'GLIBC_2.3'
p1150
sg32
g33
sba(iFingerPrint.swirl
Dependency
p1151
(dp1152
g41
Nsg42
S'libc.so.6'
p1153
sg44
g45
sg46
S'GLIBC_2.4'
p1154
sg32
g33
sba(iFingerPrint.swirl
Dependency
p1155
(dp1156
g41
Nsg42
S'libgcc_s.so.1'
p1157
sg44
g45
sg46
g47
sg32
g33
sba(iFingerPrint.swirl
Dependency
p1158
(dp1159
g41
Nsg42
S'libgcc_s.so.1'
p1160
sg44
g45
sg46
S'GCC_3.0'
p1161
sg32
g33
sba(iFingerPrint.swirl
Dependency
p1162
(dp1163
g41
Nsg42
S'libgcc_s.so.1'
p1164
sg44
g45
sg46
S'GCC_3.3'
p1165
sg32
g33
sba(iFingerPrint.swirl
Dependency
p1166
(dp1167
g41
Nsg42
S'libgcc_s.so.1'
p1168
sg44
g45
sg46
S'GCC_4.2.0'
p1169
sg32
g33
sba(iFingerPrint.swirl
Dependency
p1170
(dp1171
g41
Nsg42
S'libm.so.6'
p1172
sg44
g45
sg46
g47
sg32
g33
sbasg124
(lp1173
(iFingerPrint.swirl
Dependency
p1174
(dp1175
g41
Nsg42
S'libstdc++.so.6'
p1176
sg44
g45
sg46
g47
sg32
g33
sba(iFingerPrint.swirl
Dependency
p1177
(dp1178
g41
Nsg42
S'libstdc++.so.6'
p1179
sg44
g45
sg46
S'CXXABI_1.3.1'
p1180
sg32
g33
sba(iFingerPrint.swirl
Dependency
p1181
(dp1182
g41
Nsg42
S'libstdc++.so.6'
p1183
sg44
g45
sg46
S'CXXABI_1.3'
p1184
sg32
g33
sba(iFingerPrint.swirl
Dependency
p1185
(dp1186
g41
Nsg42
S'libstdc++.so.6'
p1187
sg44
g45
sg46
S'GLIBCXX_3.4.1'
p1188
sg32
g33
sba(iFingerPrint.swirl
Dependency
p1189
(dp1190
g41
Nsg42
S'libstdc++.so.6'
p1191
sg44
g45
sg46
S'GLIBCXX_3.4.2'
p1192
sg32
g33
sba(iFingerPrint.swirl
Dependency
p1193
(dp1194
g41
Nsg42
S'libstdc++.so.6'
p1195
sg44
g45
sg46
S'GLIBCXX_3.4.3'
p1196
sg32
g33
sba(iFingerPrint.swirl
Dependency
p1197
(dp1198
g41
Nsg42
S'libstdc++.so.6'
p1199
sg44
g45
sg46
S'GLIBCXX_3.4.4'
p1200
sg32
g33
sba(iFingerPrint.swirl
Dependency
p1201
(dp1202
g41
Nsg42
S'libstdc++.so.6'
p1203
sg44
g45
sg46
S'GLIBCXX_3.4.5'
p1204
sg32
g33
sba(iFingerPrint.swirl
Dependency
p1205
(dp1206
g41
Nsg42
S'libstdc++.so.6'
p1207
sg44
g45
sg46
S'GLIBCXX_3.4'
p1208
sg32
g33
sba(iFingerPrint.swirl
Dependency
p1209
(dp1210
g41
Nsg42
S'libstdc++.so.6'
p1211
sg44
g45
sg46
S'GLIBCXX_3.4.6'
p1212
sg32
g33
sba(iFingerPrint.swirl
Dependency
p1213
(dp1214
g41
Nsg42
S'libstdc++.so.6'
p1215
sg44
g45
sg46
S'GLIBCXX_3.4.7'
p1216
sg32
g33
sba(iFingerPrint.swirl
Dependency
p1217
(dp1218
g41
Nsg42
S'libstdc++.so.6'
p1219
sg44
g45
sg46
S'GLIBCXX_3.4.8'
p1220
sg32
g33
sbasg126
(dp1221
sg128
(lp1222
g47
asg131
S'/usr/lib64/libstdc++.so.6.0.8'
p1223
sg44
g45
sba(iFingerPrint.swirl
SwirlFile
p1224
(dp1225
g25
I00
sg26
(lp1226
sg28
(lp1227
S'/opt/mvapich2/intel/ib/lib/libmpl.so.1'
p1228
asg30
(lp1229
sg32
g33
sg34
S'80abe8ac293f556355470bc38295234a'
p1230
sg36
S'mvapich2_intel_ib-1.8a1p1-1'
p1231
sg37
(lp1232
(iFingerPrint.swirl
Dependency
p1233
(dp1234
g41
Nsg42
S'ld-linux-x86-64.so.2'
p1235
sg44
g45
sg46
g47
sg32
g33
sba(iFingerPrint.swirl
Dependency
p1236
(dp1237
g41
Nsg42
S'libc.so.6'
p1238
sg44
g45
sg46
g47
sg32
g33
sba(iFingerPrint.swirl
Dependency
p1239
(dp1240
g41
Nsg42
S'libc.so.6'
p1241
sg44
g45
sg46
S'GLIBC_2.2.5'
p1242
sg32
g33
sba(iFingerPrint.swirl
Dependency
p1243
(dp1244
g41
Nsg42
S'libc.so.6'
p1245
sg44
g45
sg46
S'GLIBC_2.3'
p1246
sg32
g33
sba(iFingerPrint.swirl
Dependency
p1247
(dp1248
g41
Nsg42
S'libdl.so.2'
p1249
sg44
g45
sg46
g47
sg32
g33
sba(iFingerPrint.swirl
Dependency
p1250
(dp1251
g41
Nsg42
S'libgcc_s.so.1'
p1252
sg44
g45
sg46
g47
sg32
g33
sba(iFingerPrint.swirl
Dependency
p1253
(dp1254
g41
Nsg42
S'libimf.so'
p1255
sg44
g45
sg46
g47
sg32
g33
sba(iFingerPrint.swirl
Dependency
p1256
(dp1257
g41
Nsg42
S'libintlc.so.5'
p1258
sg44
g45
sg46
g47
sg32
g33
sba(iFingerPrint.swirl
Dependency
p1259
(dp1260
g41
Nsg42
S'libm.so.6'
p1261
sg44
g45
sg46
g47
sg32
g33
sba(iFingerPrint.swirl
Dependency
p1262
(dp1263
g41
Nsg42
S'libsvml.so'
p1264
sg44
g45
sg46
g47
sg32
g33
sbasg124
(lp1265
(iFingerPrint.swirl
Dependency
p1266
(dp1267
g41
Nsg42
S'libmpl.so.1'
p1268
sg44
g45
sg46
g47
sg32
g33
sbasg126
(dp1269
sg128
(lp1270
g47
asg131
S'/opt/mvapich2/intel/ib/lib/libmpl.so.1.1.0'
p1271
sg44
g45
sba(iFingerPrint.swirl
SwirlFile
p1272
(dp1273
g25
I00
sg26
(lp1274
sg28
(lp1275
S'/opt/mvapich2/intel/ib/lib/libopa.so.1'
p1276
asg30
(lp1277
sg32
g33
sg34
S'440b992905efd1d84fe4fe114d6531e2'
p1278
sg36
S'mvapich2_intel_ib-1.8a1p1-1'
p1279
sg37
(lp1280
(iFingerPrint.swirl
Dependency
p1281
(dp1282
g41
Nsg42
S'ld-linux-x86-64.so.2'
p1283
sg44
g45
sg46
g47
sg32
g33
sba(iFingerPrint.swirl
Dependency
p1284
(dp1285
g41
Nsg42
S'libc.so.6'
p1286
sg44
g45
sg46
g47
sg32
g33
sba(iFingerPrint.swirl
Dependency
p1287
(dp1288
g41
Nsg42
S'libc.so.6'
p1289
sg44
g45
sg46
S'GLIBC_2.2.5'
p1290
sg32
g33
sba(iFingerPrint.swirl
Dependency
p1291
(dp1292
g41
Nsg42
S'libdl.so.2'
p1293
sg44
g45
sg46
g47
sg32
g33
sba(iFingerPrint.swirl
Dependency
p1294
(dp1295
g41
Nsg42
S'libgcc_s.so.1'
p1296
sg44
g45
sg46
g47
sg32
g33
sba(iFingerPrint.swirl
Dependency
p1297
(dp1298
g41
Nsg42
S'libimf.so'
p1299
sg44
g45
sg46
g47
sg32
g33
sba(iFingerPrint.swirl
Dependency
p1300
(dp1301
g41
Nsg42
S'libintlc.so.5'
p1302
sg44
g45
sg46
g47
sg32
g33
sba(iFingerPrint.swirl
Dependency
p1303
(dp1304
g41
Nsg42
S'libm.so.6'
p1305
sg44
g45
sg46
g47
sg32
g33
sba(iFingerPrint.swirl
Dependency
p1306
(dp1307
g41
Nsg42
S'libpthread.so.0'
p1308
sg44
g45
sg46
g47
sg32
g33
sba(iFingerPrint.swirl
Dependency
p1309
(dp1310
g41
Nsg42
S'libpthread.so.0'
p1311
sg44
g45
sg46
S'GLIBC_2.2.5'
p1312
sg32
g33
sba(iFingerPrint.swirl
Dependency
p1313
(dp1314
g41
Nsg42
S'libsvml.so'
p1315
sg44
g45
sg46
g47
sg32
g33
sbasg124
(lp1316
(iFingerPrint.swirl
Dependency
p1317
(dp1318
g41
Nsg42
S'libopa.so.1'
p1319
sg44
g45
sg46
g47
sg32
g33
sbasg126
(dp1320
sg128
(lp1321
g47
asg131
S'/opt/mvapich2/intel/ib/lib/libopa.so.1.0.0'
p1322
sg44
g45
sbag133
ag163
ag193
ag227
asS'cmdLine'
p1323
NsS'creationDate'
p1324
cdatetime
datetime
p1325
(S'\x07\xdd\x07\x02\x0f#*\x05\xf8\xcd'
p1326
tp1327
Rp1328
sb.