ccopy_reg
_reconstructor
p0
(cFingerPrint.swirl
Swirl
p1
c__builtin__
object
p2
Ntp3
Rp4
(dp5
S'swirlFiles'
p6
(lp7
g0
(cFingerPrint.swirl
SwirlFile
p8
g2
Ntp9
Rp10
(dp11
S'type'
p12
S'Data'
p13
sS'md5sum'
p14
NsS'pluginName'
p15
NsS'dyn'
p16
I01
sS'dependencies'
p17
(lp18
sS'provides'
p19
(lp20
sS'path'
p21
S'namd/bin/charmrun'
p22
sS'arch'
p23
Nsbag0
(g8
g2
Ntp24
Rp25
(dp26
g12
S'ELF'
p27
sg14
Nsg15
g27
sg16
I01
sg17
(lp28
g0
(cFingerPrint.swirl
Dependency
p29
g2
Ntp30
Rp31
(dp32
S'hashList'
p33
(lp34
NaS'1c6405127c31943229e3547acf291153'
p35
asS'packageList'
p36
(lp37
NaS'glibc-2.5-81'
p38
asS'pathList'
p39
(lp40
S'/lib64/libc.so.6'
p41
aS'/lib64/libc-2.5.so'
p42
asg15
g27
sS'depname'
p43
S'libc.so.6()(64bit)'
p44
sg23
S'x86_64'
p45
sbag0
(g29
g2
Ntp46
Rp47
(dp48
g33
g34
sg36
g37
sg39
g40
sg15
g27
sg43
S'libc.so.6(GLIBC_2.2.5)(64bit)'
p49
sg23
g45
sbag0
(g29
g2
Ntp50
Rp51
(dp52
g33
(lp53
NaS'fe2fa5c6f4ae8b2da84065c0dd52da59'
p54
asg36
(lp55
NaS'glibc-2.5-81'
p56
asg39
(lp57
S'/lib64/libdl.so.2'
p58
aS'/lib64/libdl-2.5.so'
p59
asg15
g27
sg43
S'libdl.so.2()(64bit)'
p60
sg23
g45
sbag0
(g29
g2
Ntp61
Rp62
(dp63
g33
(lp64
NaS'b826dab581b5cdb143a9cb9a4c46dc9f'
p65
asg36
(lp66
NaS'libgcc-4.1.2-52.el5'
p67
asg39
(lp68
S'/lib64/libgcc_s.so.1'
p69
aS'/lib64/libgcc_s-4.1.2-20080825.so.1'
p70
asg15
g27
sg43
S'libgcc_s.so.1()(64bit)'
p71
sg23
g45
sbag0
(g29
g2
Ntp72
Rp73
(dp74
g33
(lp75
NaS'91991b2ce457e3e5784b5afa9febfcaf'
p76
asg36
(lp77
NaS'glibc-2.5-81'
p78
asg39
(lp79
S'/lib64/libm.so.6'
p80
aS'/lib64/libm-2.5.so'
p81
asg15
g27
sg43
S'libm.so.6()(64bit)'
p82
sg23
g45
sbasg19
(lp83
sg21
S'namd/bin/flipbinpdb'
p84
sg23
g45
sbag0
(g8
g2
Ntp85
Rp86
(dp87
g12
g27
sg14
Nsg15
g27
sg16
I01
sg17
(lp88
g0
(g29
g2
Ntp89
Rp90
(dp91
g33
g34
sg36
g37
sg39
g40
sg15
g27
sg43
S'libc.so.6()(64bit)'
p92
sg23
g45
sbag0
(g29
g2
Ntp93
Rp94
(dp95
g33
g34
sg36
g37
sg39
g40
sg15
g27
sg43
S'libc.so.6(GLIBC_2.2.5)(64bit)'
p96
sg23
g45
sbag0
(g29
g2
Ntp97
Rp98
(dp99
g33
g53
sg36
g55
sg39
g57
sg15
g27
sg43
S'libdl.so.2()(64bit)'
p100
sg23
g45
sbag0
(g29
g2
Ntp101
Rp102
(dp103
g33
g64
sg36
g66
sg39
g68
sg15
g27
sg43
S'libgcc_s.so.1()(64bit)'
p104
sg23
g45
sbag0
(g29
g2
Ntp105
Rp106
(dp107
g33
g75
sg36
g77
sg39
g79
sg15
g27
sg43
S'libm.so.6()(64bit)'
p108
sg23
g45
sbasg19
(lp109
sg21
S'namd/bin/flipdcd'
p110
sg23
g45
sbag0
(g8
g2
Ntp111
Rp112
(dp113
g12
g27
sg14
Nsg15
g27
sg16
I01
sg17
(lp114
g0
(g29
g2
Ntp115
Rp116
(dp117
g33
g34
sg36
g37
sg39
g40
sg15
g27
sg43
S'libc.so.6()(64bit)'
p118
sg23
g45
sbag0
(g29
g2
Ntp119
Rp120
(dp121
g33
g34
sg36
g37
sg39
g40
sg15
g27
sg43
S'libc.so.6(GLIBC_2.2.5)(64bit)'
p122
sg23
g45
sbag0
(g29
g2
Ntp123
Rp124
(dp125
g33
g34
sg36
g37
sg39
g40
sg15
g27
sg43
S'libc.so.6(GLIBC_2.3)(64bit)'
p126
sg23
g45
sbag0
(g29
g2
Ntp127
Rp128
(dp129
g33
g34
sg36
g37
sg39
g40
sg15
g27
sg43
S'libc.so.6(GLIBC_2.3.4)(64bit)'
p130
sg23
g45
sbag0
(g29
g2
Ntp131
Rp132
(dp133
g33
g53
sg36
g55
sg39
g57
sg15
g27
sg43
S'libdl.so.2()(64bit)'
p134
sg23
g45
sbag0
(g29
g2
Ntp135
Rp136
(dp137
g33
(lp138
NaS'f70e8f18a25c10d31b0d27860724739b'
p139
asg36
(lp140
NaNasg39
(lp141
S'/scratch/scratch95/c/clementi/XsedeTests/compile/steele/namd/fftwbin/lib//libfftw3f.so.3'
p142
aS'/scratch/scratch95/c/clementi/XsedeTests/compile/steele/namd/fftwbin/lib/libfftw3f.so.3.3.2'
p143
asg15
g27
sg43
S'libfftw3f.so.3()(64bit)'
p144
sg23
g45
sbag0
(g29
g2
Ntp145
Rp146
(dp147
g33
g64
sg36
g66
sg39
g68
sg15
g27
sg43
S'libgcc_s.so.1()(64bit)'
p148
sg23
g45
sbag0
(g29
g2
Ntp149
Rp150
(dp151
g33
g64
sg36
g66
sg39
g68
sg15
g27
sg43
S'libgcc_s.so.1(GCC_3.0)(64bit)'
p152
sg23
g45
sbag0
(g29
g2
Ntp153
Rp154
(dp155
g33
g75
sg36
g77
sg39
g79
sg15
g27
sg43
S'libm.so.6()(64bit)'
p156
sg23
g45
sbag0
(g29
g2
Ntp157
Rp158
(dp159
g33
(lp160
NaS'14c885727410191e99d666d95da0ef8d'
p161
asg36
(lp162
NaNasg39
(lp163
S'/apps/rhel5/mpich2-1.4.1p1/64/nemesis-intel-12.1/lib/libmpich.so.3'
p164
aS'/apps/rhel5/mpich2-1.4.1p1/64/nemesis-intel-12.1/lib/libmpich.so.3.3'
p165
asg15
g27
sg43
S'libmpich.so.3()(64bit)'
p166
sg23
g45
sbag0
(g29
g2
Ntp167
Rp168
(dp169
g33
(lp170
NaS'bd2c63fd25243f99a8b8717fb0a8d278'
p171
asg36
(lp172
NaNasg39
(lp173
S'/apps/rhel5/mpich2-1.4.1p1/64/nemesis-intel-12.1/lib/libmpichcxx.so.3'
p174
aS'/apps/rhel5/mpich2-1.4.1p1/64/nemesis-intel-12.1/lib/libmpichcxx.so.3.3'
p175
asg15
g27
sg43
S'libmpichcxx.so.3()(64bit)'
p176
sg23
g45
sbag0
(g29
g2
Ntp177
Rp178
(dp179
g33
(lp180
NaS'fc80d0c1a1ca8c6112231ab640e51257'
p181
asg36
(lp182
NaNasg39
(lp183
S'/apps/rhel5/mpich2-1.4.1p1/64/nemesis-intel-12.1/lib/libmpl.so.1'
p184
aS'/apps/rhel5/mpich2-1.4.1p1/64/nemesis-intel-12.1/lib/libmpl.so.1.1.0'
p185
asg15
g27
sg43
S'libmpl.so.1()(64bit)'
p186
sg23
g45
sbag0
(g29
g2
Ntp187
Rp188
(dp189
g33
(lp190
NaS'aab56fdd43f0a0b174bba5aac88fd049'
p191
asg36
(lp192
NaNasg39
(lp193
S'/apps/rhel5/mpich2-1.4.1p1/64/nemesis-intel-12.1/lib/libopa.so.1'
p194
aS'/apps/rhel5/mpich2-1.4.1p1/64/nemesis-intel-12.1/lib/libopa.so.1.0.0'
p195
asg15
g27
sg43
S'libopa.so.1()(64bit)'
p196
sg23
g45
sbag0
(g29
g2
Ntp197
Rp198
(dp199
g33
(lp200
NaS'fdeba14ad403fc4e6c88286280eb70b4'
p201
asg36
(lp202
NaS'glibc-2.5-81'
p203
asg39
(lp204
S'/lib64/libpthread.so.0'
p205
aS'/lib64/libpthread-2.5.so'
p206
asg15
g27
sg43
S'libpthread.so.0()(64bit)'
p207
sg23
g45
sbag0
(g29
g2
Ntp208
Rp209
(dp210
g33
g200
sg36
g202
sg39
g204
sg15
g27
sg43
S'libpthread.so.0(GLIBC_2.2.5)(64bit)'
p211
sg23
g45
sbag0
(g29
g2
Ntp212
Rp213
(dp214
g33
(lp215
NaS'029e86f9a493105e2fc3026a14ff5544'
p216
asg36
(lp217
NaS'glibc-2.5-81'
p218
asg39
(lp219
S'/lib64/librt.so.1'
p220
aS'/lib64/librt-2.5.so'
p221
asg15
g27
sg43
S'librt.so.1()(64bit)'
p222
sg23
g45
sbag0
(g29
g2
Ntp223
Rp224
(dp225
g33
(lp226
NaS'c267f07df2d95886fec6a165d6081a22'
p227
asg36
(lp228
NaS'libstdc++-4.1.2-52.el5'
p229
asg39
(lp230
S'/usr/lib64/libstdc++.so.6'
p231
aS'/usr/lib64/libstdc++.so.6.0.8'
p232
asg15
g27
sg43
S'libstdc++.so.6()(64bit)'
p233
sg23
g45
sbag0
(g29
g2
Ntp234
Rp235
(dp236
g33
g226
sg36
g228
sg39
g230
sg15
g27
sg43
S'libstdc++.so.6(GLIBCXX_3.4)(64bit)'
p237
sg23
g45
sbasg19
(lp238
sg21
S'namd/bin/namd2'
p239
sg23
g45
sbag0
(g8
g2
Ntp240
Rp241
(dp242
g12
g27
sg14
Nsg15
g27
sg16
I01
sg17
(lp243
g0
(g29
g2
Ntp244
Rp245
(dp246
g33
g34
sg36
g37
sg39
g40
sg15
g27
sg43
S'libc.so.6()(64bit)'
p247
sg23
g45
sbag0
(g29
g2
Ntp248
Rp249
(dp250
g33
g34
sg36
g37
sg39
g40
sg15
g27
sg43
S'libc.so.6(GLIBC_2.2.5)(64bit)'
p251
sg23
g45
sbag0
(g29
g2
Ntp252
Rp253
(dp254
g33
g34
sg36
g37
sg39
g40
sg15
g27
sg43
S'libc.so.6(GLIBC_2.3)(64bit)'
p255
sg23
g45
sbag0
(g29
g2
Ntp256
Rp257
(dp258
g33
g53
sg36
g55
sg39
g57
sg15
g27
sg43
S'libdl.so.2()(64bit)'
p259
sg23
g45
sbag0
(g29
g2
Ntp260
Rp261
(dp262
g33
g64
sg36
g66
sg39
g68
sg15
g27
sg43
S'libgcc_s.so.1()(64bit)'
p263
sg23
g45
sbag0
(g29
g2
Ntp264
Rp265
(dp266
g33
g75
sg36
g77
sg39
g79
sg15
g27
sg43
S'libm.so.6()(64bit)'
p267
sg23
g45
sbasg19
(lp268
sg21
S'namd/bin/psfgen'
p269
sg23
g45
sbasS'creationDate'
p270
cdatetime
datetime
p271
(S'\x07\xdc\t\x19\x0f\x082\x0c6\x93'
p272
tp273
Rp274
sS'name'
p275
S'Swirl'
p276
sb.