ccopy_reg
_reconstructor
p0
(cFingerPrint.swirl
Swirl
p1
c__builtin__
object
p2
Ntp3
Rp4
(dp5
S'swirlFiles'
p6
(lp7
(iFingerPrint.swirl
SwirlFile
p8
(dp9
S'links'
p10
(lp11
sS'dynamicDependencies'
p12
(lp13
sS'type'
p14
S'Data'
p15
sS'md5sum'
p16
S'3357dc3007fff11565962f75b8d8a3b9'
p17
sS'package'
p18
NsS'staticDependencies'
p19
(lp20
sS'provides'
p21
(lp22
sS'openedFiles'
p23
(dp24
sS'rpaths'
p25
(lp26
sS'path'
p27
S'namd/bin/charmrun'
p28
sS'arch'
p29
Nsba(iFingerPrint.swirl
SwirlFile
p30
(dp31
S'executable'
p32
I01
sg10
(lp33
sg12
(lp34
sg14
S'ELF'
p35
sg16
S'e393e6b2a3fc2239242e43f3d19e835e'
p36
sg18
Nsg19
(lp37
(iFingerPrint.swirl
Dependency
p38
(dp39
S'hwcap'
p40
NsS'major'
p41
S'ld-linux-x86-64.so.2'
p42
sg29
S'x86_64'
p43
sS'minor'
p44
S''
p45
sg14
g35
sba(iFingerPrint.swirl
Dependency
p46
(dp47
g40
Nsg41
S'libc.so.6'
p48
sg29
g43
sg44
g45
sg14
g35
sba(iFingerPrint.swirl
Dependency
p49
(dp50
g40
Nsg41
S'libc.so.6'
p51
sg29
g43
sg44
S'GLIBC_2.2.5'
p52
sg14
g35
sba(iFingerPrint.swirl
Dependency
p53
(dp54
g40
Nsg41
S'libdl.so.2'
p55
sg29
g43
sg44
g45
sg14
g35
sba(iFingerPrint.swirl
Dependency
p56
(dp57
g40
Nsg41
S'libgcc_s.so.1'
p58
sg29
g43
sg44
g45
sg14
g35
sba(iFingerPrint.swirl
Dependency
p59
(dp60
g40
Nsg41
S'libm.so.6'
p61
sg29
g43
sg44
g45
sg14
g35
sbasg21
(lp62
sg23
(dp63
sg25
(lp64
g45
asg27
S'namd/bin/flipbinpdb'
p65
sg29
g43
sba(iFingerPrint.swirl
SwirlFile
p66
(dp67
g32
I00
sg10
(lp68
S'/lib64/ld-linux-x86-64.so.2'
p69
asg12
(lp70
sg14
g35
sg16
S'7b258e07eeb7a69fcf889fb65ed19ddf'
p71
sg18
Nsg19
(lp72
sg21
(lp73
(iFingerPrint.swirl
Dependency
p74
(dp75
g40
Nsg41
S'ld-linux-x86-64.so.2'
p76
sg29
g43
sg44
g45
sg14
g35
sba(iFingerPrint.swirl
Dependency
p77
(dp78
g40
Nsg41
S'ld-linux-x86-64.so.2'
p79
sg29
g43
sg44
S'GLIBC_2.2.5'
p80
sg14
g35
sba(iFingerPrint.swirl
Dependency
p81
(dp82
g40
Nsg41
S'ld-linux-x86-64.so.2'
p83
sg29
g43
sg44
S'GLIBC_2.3'
p84
sg14
g35
sba(iFingerPrint.swirl
Dependency
p85
(dp86
g40
Nsg41
S'ld-linux-x86-64.so.2'
p87
sg29
g43
sg44
S'GLIBC_2.4'
p88
sg14
g35
sba(iFingerPrint.swirl
Dependency
p89
(dp90
g40
Nsg41
S'ld-linux-x86-64.so.2'
p91
sg29
g43
sg44
S'GLIBC_PRIVATE'
p92
sg14
g35
sbasg23
(dp93
sg25
(lp94
g45
asg27
S'/lib64/ld-2.5.so'
p95
sg29
g43
sba(iFingerPrint.swirl
SwirlFile
p96
(dp97
g32
I00
sg10
(lp98
S'/lib64/libc.so.6'
p99
asg12
(lp100
sg14
g35
sg16
S'1c6405127c31943229e3547acf291153'
p101
sg18
Nsg19
(lp102
(iFingerPrint.swirl
Dependency
p103
(dp104
g40
Nsg41
S'ld-linux-x86-64.so.2'
p105
sg29
g43
sg44
g45
sg14
g35
sba(iFingerPrint.swirl
Dependency
p106
(dp107
g40
Nsg41
S'ld-linux-x86-64.so.2'
p108
sg29
g43
sg44
S'GLIBC_2.3'
p109
sg14
g35
sba(iFingerPrint.swirl
Dependency
p110
(dp111
g40
Nsg41
S'ld-linux-x86-64.so.2'
p112
sg29
g43
sg44
S'GLIBC_PRIVATE'
p113
sg14
g35
sbasg21
(lp114
(iFingerPrint.swirl
Dependency
p115
(dp116
g40
Nsg41
S'libc.so.6'
p117
sg29
g43
sg44
g45
sg14
g35
sba(iFingerPrint.swirl
Dependency
p118
(dp119
g40
Nsg41
S'libc.so.6'
p120
sg29
g43
sg44
S'GLIBC_2.2.5'
p121
sg14
g35
sba(iFingerPrint.swirl
Dependency
p122
(dp123
g40
Nsg41
S'libc.so.6'
p124
sg29
g43
sg44
S'GLIBC_2.2.6'
p125
sg14
g35
sba(iFingerPrint.swirl
Dependency
p126
(dp127
g40
Nsg41
S'libc.so.6'
p128
sg29
g43
sg44
S'GLIBC_2.3'
p129
sg14
g35
sba(iFingerPrint.swirl
Dependency
p130
(dp131
g40
Nsg41
S'libc.so.6'
p132
sg29
g43
sg44
S'GLIBC_2.3.2'
p133
sg14
g35
sba(iFingerPrint.swirl
Dependency
p134
(dp135
g40
Nsg41
S'libc.so.6'
p136
sg29
g43
sg44
S'GLIBC_2.3.3'
p137
sg14
g35
sba(iFingerPrint.swirl
Dependency
p138
(dp139
g40
Nsg41
S'libc.so.6'
p140
sg29
g43
sg44
S'GLIBC_2.3.4'
p141
sg14
g35
sba(iFingerPrint.swirl
Dependency
p142
(dp143
g40
Nsg41
S'libc.so.6'
p144
sg29
g43
sg44
S'GLIBC_2.4'
p145
sg14
g35
sba(iFingerPrint.swirl
Dependency
p146
(dp147
g40
Nsg41
S'libc.so.6'
p148
sg29
g43
sg44
S'GLIBC_2.5'
p149
sg14
g35
sba(iFingerPrint.swirl
Dependency
p150
(dp151
g40
Nsg41
S'libc.so.6'
p152
sg29
g43
sg44
S'GLIBC_PRIVATE'
p153
sg14
g35
sbasg23
(dp154
sg25
(lp155
g45
asg27
S'/lib64/libc-2.5.so'
p156
sg29
g43
sba(iFingerPrint.swirl
SwirlFile
p157
(dp158
g32
I00
sg10
(lp159
S'/lib64/libdl.so.2'
p160
asg12
(lp161
sg14
g35
sg16
S'fe2fa5c6f4ae8b2da84065c0dd52da59'
p162
sg18
Nsg19
(lp163
(iFingerPrint.swirl
Dependency
p164
(dp165
g40
Nsg41
S'ld-linux-x86-64.so.2'
p166
sg29
g43
sg44
g45
sg14
g35
sba(iFingerPrint.swirl
Dependency
p167
(dp168
g40
Nsg41
S'ld-linux-x86-64.so.2'
p169
sg29
g43
sg44
S'GLIBC_PRIVATE'
p170
sg14
g35
sba(iFingerPrint.swirl
Dependency
p171
(dp172
g40
Nsg41
S'libc.so.6'
p173
sg29
g43
sg44
g45
sg14
g35
sba(iFingerPrint.swirl
Dependency
p174
(dp175
g40
Nsg41
S'libc.so.6'
p176
sg29
g43
sg44
S'GLIBC_2.2.5'
p177
sg14
g35
sba(iFingerPrint.swirl
Dependency
p178
(dp179
g40
Nsg41
S'libc.so.6'
p180
sg29
g43
sg44
S'GLIBC_PRIVATE'
p181
sg14
g35
sbasg21
(lp182
(iFingerPrint.swirl
Dependency
p183
(dp184
g40
Nsg41
S'libdl.so.2'
p185
sg29
g43
sg44
g45
sg14
g35
sba(iFingerPrint.swirl
Dependency
p186
(dp187
g40
Nsg41
S'libdl.so.2'
p188
sg29
g43
sg44
S'GLIBC_2.2.5'
p189
sg14
g35
sba(iFingerPrint.swirl
Dependency
p190
(dp191
g40
Nsg41
S'libdl.so.2'
p192
sg29
g43
sg44
S'GLIBC_2.3.3'
p193
sg14
g35
sba(iFingerPrint.swirl
Dependency
p194
(dp195
g40
Nsg41
S'libdl.so.2'
p196
sg29
g43
sg44
S'GLIBC_2.3.4'
p197
sg14
g35
sba(iFingerPrint.swirl
Dependency
p198
(dp199
g40
Nsg41
S'libdl.so.2'
p200
sg29
g43
sg44
S'GLIBC_PRIVATE'
p201
sg14
g35
sbasg23
(dp202
sg25
(lp203
g45
asg27
S'/lib64/libdl-2.5.so'
p204
sg29
g43
sba(iFingerPrint.swirl
SwirlFile
p205
(dp206
g32
I00
sg10
(lp207
S'/lib64/libgcc_s.so.1'
p208
asg12
(lp209
sg14
g35
sg16
S'b826dab581b5cdb143a9cb9a4c46dc9f'
p210
sg18
Nsg19
(lp211
(iFingerPrint.swirl
Dependency
p212
(dp213
g40
Nsg41
S'ld-linux-x86-64.so.2'
p214
sg29
g43
sg44
g45
sg14
g35
sba(iFingerPrint.swirl
Dependency
p215
(dp216
g40
Nsg41
S'libc.so.6'
p217
sg29
g43
sg44
g45
sg14
g35
sba(iFingerPrint.swirl
Dependency
p218
(dp219
g40
Nsg41
S'libc.so.6'
p220
sg29
g43
sg44
S'GLIBC_2.2.5'
p221
sg14
g35
sba(iFingerPrint.swirl
Dependency
p222
(dp223
g40
Nsg41
S'libc.so.6'
p224
sg29
g43
sg44
S'GLIBC_2.4'
p225
sg14
g35
sbasg21
(lp226
(iFingerPrint.swirl
Dependency
p227
(dp228
g40
Nsg41
S'libgcc_s.so.1'
p229
sg29
g43
sg44
g45
sg14
g35
sba(iFingerPrint.swirl
Dependency
p230
(dp231
g40
Nsg41
S'libgcc_s.so.1'
p232
sg29
g43
sg44
S'GCC_3.0'
p233
sg14
g35
sba(iFingerPrint.swirl
Dependency
p234
(dp235
g40
Nsg41
S'libgcc_s.so.1'
p236
sg29
g43
sg44
S'GCC_3.3'
p237
sg14
g35
sba(iFingerPrint.swirl
Dependency
p238
(dp239
g40
Nsg41
S'libgcc_s.so.1'
p240
sg29
g43
sg44
S'GCC_3.3.1'
p241
sg14
g35
sba(iFingerPrint.swirl
Dependency
p242
(dp243
g40
Nsg41
S'libgcc_s.so.1'
p244
sg29
g43
sg44
S'GCC_3.4'
p245
sg14
g35
sba(iFingerPrint.swirl
Dependency
p246
(dp247
g40
Nsg41
S'libgcc_s.so.1'
p248
sg29
g43
sg44
S'GCC_3.4.2'
p249
sg14
g35
sba(iFingerPrint.swirl
Dependency
p250
(dp251
g40
Nsg41
S'libgcc_s.so.1'
p252
sg29
g43
sg44
S'GCC_3.4.4'
p253
sg14
g35
sba(iFingerPrint.swirl
Dependency
p254
(dp255
g40
Nsg41
S'libgcc_s.so.1'
p256
sg29
g43
sg44
S'GCC_4.0.0'
p257
sg14
g35
sba(iFingerPrint.swirl
Dependency
p258
(dp259
g40
Nsg41
S'libgcc_s.so.1'
p260
sg29
g43
sg44
S'GCC_4.2.0'
p261
sg14
g35
sbasg23
(dp262
sg25
(lp263
g45
asg27
S'/lib64/libgcc_s-4.1.2-20080825.so.1'
p264
sg29
g43
sba(iFingerPrint.swirl
SwirlFile
p265
(dp266
g32
I00
sg10
(lp267
S'/lib64/libm.so.6'
p268
asg12
(lp269
sg14
g35
sg16
S'91991b2ce457e3e5784b5afa9febfcaf'
p270
sg18
Nsg19
(lp271
(iFingerPrint.swirl
Dependency
p272
(dp273
g40
Nsg41
S'ld-linux-x86-64.so.2'
p274
sg29
g43
sg44
g45
sg14
g35
sba(iFingerPrint.swirl
Dependency
p275
(dp276
g40
Nsg41
S'libc.so.6'
p277
sg29
g43
sg44
g45
sg14
g35
sba(iFingerPrint.swirl
Dependency
p278
(dp279
g40
Nsg41
S'libc.so.6'
p280
sg29
g43
sg44
S'GLIBC_2.2.5'
p281
sg14
g35
sbasg21
(lp282
(iFingerPrint.swirl
Dependency
p283
(dp284
g40
Nsg41
S'libm.so.6'
p285
sg29
g43
sg44
g45
sg14
g35
sba(iFingerPrint.swirl
Dependency
p286
(dp287
g40
Nsg41
S'libm.so.6'
p288
sg29
g43
sg44
S'GLIBC_2.2.5'
p289
sg14
g35
sba(iFingerPrint.swirl
Dependency
p290
(dp291
g40
Nsg41
S'libm.so.6'
p292
sg29
g43
sg44
S'GLIBC_2.4'
p293
sg14
g35
sbasg23
(dp294
sg25
(lp295
g45
asg27
S'/lib64/libm-2.5.so'
p296
sg29
g43
sba(iFingerPrint.swirl
SwirlFile
p297
(dp298
g32
I01
sg10
(lp299
sg12
(lp300
sg14
g35
sg16
S'3cfbf8d42975038814b9fa657e9252a2'
p301
sg18
Nsg19
(lp302
(iFingerPrint.swirl
Dependency
p303
(dp304
g40
Nsg41
S'ld-linux-x86-64.so.2'
p305
sg29
g43
sg44
g45
sg14
g35
sba(iFingerPrint.swirl
Dependency
p306
(dp307
g40
Nsg41
S'libc.so.6'
p308
sg29
g43
sg44
g45
sg14
g35
sba(iFingerPrint.swirl
Dependency
p309
(dp310
g40
Nsg41
S'libc.so.6'
p311
sg29
g43
sg44
S'GLIBC_2.2.5'
p312
sg14
g35
sba(iFingerPrint.swirl
Dependency
p313
(dp314
g40
Nsg41
S'libdl.so.2'
p315
sg29
g43
sg44
g45
sg14
g35
sba(iFingerPrint.swirl
Dependency
p316
(dp317
g40
Nsg41
S'libgcc_s.so.1'
p318
sg29
g43
sg44
g45
sg14
g35
sba(iFingerPrint.swirl
Dependency
p319
(dp320
g40
Nsg41
S'libm.so.6'
p321
sg29
g43
sg44
g45
sg14
g35
sbasg21
(lp322
sg23
(dp323
sg25
(lp324
g45
asg27
S'namd/bin/flipdcd'
p325
sg29
g43
sba(iFingerPrint.swirl
SwirlFile
p326
(dp327
g32
I01
sg10
(lp328
sg12
(lp329
sg14
g35
sg16
S'243099a440adeb5e2694a5036f34c057'
p330
sg18
Nsg19
(lp331
(iFingerPrint.swirl
Dependency
p332
(dp333
g40
Nsg41
S'ld-linux-x86-64.so.2'
p334
sg29
g43
sg44
g45
sg14
g35
sba(iFingerPrint.swirl
Dependency
p335
(dp336
g40
Nsg41
S'libc.so.6'
p337
sg29
g43
sg44
g45
sg14
g35
sba(iFingerPrint.swirl
Dependency
p338
(dp339
g40
Nsg41
S'libc.so.6'
p340
sg29
g43
sg44
S'GLIBC_2.2.5'
p341
sg14
g35
sba(iFingerPrint.swirl
Dependency
p342
(dp343
g40
Nsg41
S'libc.so.6'
p344
sg29
g43
sg44
S'GLIBC_2.3'
p345
sg14
g35
sba(iFingerPrint.swirl
Dependency
p346
(dp347
g40
Nsg41
S'libc.so.6'
p348
sg29
g43
sg44
S'GLIBC_2.3.4'
p349
sg14
g35
sba(iFingerPrint.swirl
Dependency
p350
(dp351
g40
Nsg41
S'libdl.so.2'
p352
sg29
g43
sg44
g45
sg14
g35
sba(iFingerPrint.swirl
Dependency
p353
(dp354
g40
Nsg41
S'libfftw3f.so.3'
p355
sg29
g43
sg44
g45
sg14
g35
sba(iFingerPrint.swirl
Dependency
p356
(dp357
g40
Nsg41
S'libgcc_s.so.1'
p358
sg29
g43
sg44
g45
sg14
g35
sba(iFingerPrint.swirl
Dependency
p359
(dp360
g40
Nsg41
S'libgcc_s.so.1'
p361
sg29
g43
sg44
S'GCC_3.0'
p362
sg14
g35
sba(iFingerPrint.swirl
Dependency
p363
(dp364
g40
Nsg41
S'libm.so.6'
p365
sg29
g43
sg44
g45
sg14
g35
sba(iFingerPrint.swirl
Dependency
p366
(dp367
g40
Nsg41
S'libmpich.so.3'
p368
sg29
g43
sg44
g45
sg14
g35
sba(iFingerPrint.swirl
Dependency
p369
(dp370
g40
Nsg41
S'libmpichcxx.so.3'
p371
sg29
g43
sg44
g45
sg14
g35
sba(iFingerPrint.swirl
Dependency
p372
(dp373
g40
Nsg41
S'libmpl.so.1'
p374
sg29
g43
sg44
g45
sg14
g35
sba(iFingerPrint.swirl
Dependency
p375
(dp376
g40
Nsg41
S'libopa.so.1'
p377
sg29
g43
sg44
g45
sg14
g35
sba(iFingerPrint.swirl
Dependency
p378
(dp379
g40
Nsg41
S'libpthread.so.0'
p380
sg29
g43
sg44
g45
sg14
g35
sba(iFingerPrint.swirl
Dependency
p381
(dp382
g40
Nsg41
S'libpthread.so.0'
p383
sg29
g43
sg44
S'GLIBC_2.2.5'
p384
sg14
g35
sba(iFingerPrint.swirl
Dependency
p385
(dp386
g40
Nsg41
S'librt.so.1'
p387
sg29
g43
sg44
g45
sg14
g35
sba(iFingerPrint.swirl
Dependency
p388
(dp389
g40
Nsg41
S'libstdc++.so.6'
p390
sg29
g43
sg44
g45
sg14
g35
sba(iFingerPrint.swirl
Dependency
p391
(dp392
g40
Nsg41
S'libstdc++.so.6'
p393
sg29
g43
sg44
S'CXXABI_1.3'
p394
sg14
g35
sba(iFingerPrint.swirl
Dependency
p395
(dp396
g40
Nsg41
S'libstdc++.so.6'
p397
sg29
g43
sg44
S'GLIBCXX_3.4'
p398
sg14
g35
sbasg21
(lp399
sg23
(dp400
sg25
(lp401
S'/apps/rhel5/mpich2-1.4.1p1/64/nemesis-intel-12.1/lib'
p402
aS'/opt/intel/composer_xe_2011_sp1.6.233/compiler/lib/intel64'
p403
aS'/opt/intel/composer_xe_2011_sp1.8.273/mkl/lib/intel64'
p404
aS'/opt/intel/composer_xe_2011_sp1.6.233/tbb/lib/intel64/cc4.1.0_libc2.4_kernel2.6.16.21'
p405
aS'/apps/teragrid/globus-4.0.8-r2/lib'
p406
aS'/opt/teragrid/gsisshd-4.6/globus/lib'
p407
aS'/usr/rmt_share/scratch95/c/clementi/XsedeTests/compile/condor/namd/fftwbin/lib/'
p408
asg27
S'namd/bin/namd2'
p409
sg29
g43
sba(iFingerPrint.swirl
SwirlFile
p410
(dp411
g32
I00
sg10
(lp412
sg12
(lp413
sg14
g35
sg16
S'f70e8f18a25c10d31b0d27860724739b'
p414
sg18
Nsg19
(lp415
(iFingerPrint.swirl
Dependency
p416
(dp417
g40
Nsg41
S'ld-linux-x86-64.so.2'
p418
sg29
g43
sg44
g45
sg14
g35
sba(iFingerPrint.swirl
Dependency
p419
(dp420
g40
Nsg41
S'libc.so.6'
p421
sg29
g43
sg44
g45
sg14
g35
sba(iFingerPrint.swirl
Dependency
p422
(dp423
g40
Nsg41
S'libc.so.6'
p424
sg29
g43
sg44
S'GLIBC_2.2.5'
p425
sg14
g35
sba(iFingerPrint.swirl
Dependency
p426
(dp427
g40
Nsg41
S'libdl.so.2'
p428
sg29
g43
sg44
g45
sg14
g35
sba(iFingerPrint.swirl
Dependency
p429
(dp430
g40
Nsg41
S'libgcc_s.so.1'
p431
sg29
g43
sg44
g45
sg14
g35
sba(iFingerPrint.swirl
Dependency
p432
(dp433
g40
Nsg41
S'libimf.so'
p434
sg29
g43
sg44
g45
sg14
g35
sba(iFingerPrint.swirl
Dependency
p435
(dp436
g40
Nsg41
S'libintlc.so.5'
p437
sg29
g43
sg44
g45
sg14
g35
sba(iFingerPrint.swirl
Dependency
p438
(dp439
g40
Nsg41
S'libm.so.6'
p440
sg29
g43
sg44
g45
sg14
g35
sba(iFingerPrint.swirl
Dependency
p441
(dp442
g40
Nsg41
S'libsvml.so'
p443
sg29
g43
sg44
g45
sg14
g35
sbasg21
(lp444
(iFingerPrint.swirl
Dependency
p445
(dp446
g40
Nsg41
S'libfftw3f.so.3'
p447
sg29
g43
sg44
g45
sg14
g35
sbasg23
(dp448
sg25
(lp449
g45
asg27
S'/usr/rmt_share/scratch95/c/clementi/XsedeTests/compile/condor/namd/fftwbin/lib//libfftw3f.so.3'
p450
sg29
g43
sba(iFingerPrint.swirl
SwirlFile
p451
(dp452
g32
I00
sg10
(lp453
S'/apps/rhel5/mpich2-1.4.1p1/64/nemesis-intel-12.1/lib/libmpich.so.3'
p454
asg12
(lp455
sg14
g35
sg16
S'14c885727410191e99d666d95da0ef8d'
p456
sg18
Nsg19
(lp457
(iFingerPrint.swirl
Dependency
p458
(dp459
g40
Nsg41
S'ld-linux-x86-64.so.2'
p460
sg29
g43
sg44
g45
sg14
g35
sba(iFingerPrint.swirl
Dependency
p461
(dp462
g40
Nsg41
S'ld-linux-x86-64.so.2'
p463
sg29
g43
sg44
S'GLIBC_2.3'
p464
sg14
g35
sba(iFingerPrint.swirl
Dependency
p465
(dp466
g40
Nsg41
S'libc.so.6'
p467
sg29
g43
sg44
g45
sg14
g35
sba(iFingerPrint.swirl
Dependency
p468
(dp469
g40
Nsg41
S'libc.so.6'
p470
sg29
g43
sg44
S'GLIBC_2.2.5'
p471
sg14
g35
sba(iFingerPrint.swirl
Dependency
p472
(dp473
g40
Nsg41
S'libc.so.6'
p474
sg29
g43
sg44
S'GLIBC_2.3'
p475
sg14
g35
sba(iFingerPrint.swirl
Dependency
p476
(dp477
g40
Nsg41
S'libc.so.6'
p478
sg29
g43
sg44
S'GLIBC_2.3.4'
p479
sg14
g35
sba(iFingerPrint.swirl
Dependency
p480
(dp481
g40
Nsg41
S'libdl.so.2'
p482
sg29
g43
sg44
g45
sg14
g35
sba(iFingerPrint.swirl
Dependency
p483
(dp484
g40
Nsg41
S'libgcc_s.so.1'
p485
sg29
g43
sg44
g45
sg14
g35
sba(iFingerPrint.swirl
Dependency
p486
(dp487
g40
Nsg41
S'libimf.so'
p488
sg29
g43
sg44
g45
sg14
g35
sba(iFingerPrint.swirl
Dependency
p489
(dp490
g40
Nsg41
S'libintlc.so.5'
p491
sg29
g43
sg44
g45
sg14
g35
sba(iFingerPrint.swirl
Dependency
p492
(dp493
g40
Nsg41
S'libm.so.6'
p494
sg29
g43
sg44
g45
sg14
g35
sba(iFingerPrint.swirl
Dependency
p495
(dp496
g40
Nsg41
S'libpthread.so.0'
p497
sg29
g43
sg44
g45
sg14
g35
sba(iFingerPrint.swirl
Dependency
p498
(dp499
g40
Nsg41
S'libpthread.so.0'
p500
sg29
g43
sg44
S'GLIBC_2.2.5'
p501
sg14
g35
sba(iFingerPrint.swirl
Dependency
p502
(dp503
g40
Nsg41
S'libpthread.so.0'
p504
sg29
g43
sg44
S'GLIBC_2.3.2'
p505
sg14
g35
sba(iFingerPrint.swirl
Dependency
p506
(dp507
g40
Nsg41
S'librt.so.1'
p508
sg29
g43
sg44
g45
sg14
g35
sba(iFingerPrint.swirl
Dependency
p509
(dp510
g40
Nsg41
S'librt.so.1'
p511
sg29
g43
sg44
S'GLIBC_2.2.5'
p512
sg14
g35
sba(iFingerPrint.swirl
Dependency
p513
(dp514
g40
Nsg41
S'libsvml.so'
p515
sg29
g43
sg44
g45
sg14
g35
sbasg21
(lp516
(iFingerPrint.swirl
Dependency
p517
(dp518
g40
Nsg41
S'libmpich.so.3'
p519
sg29
g43
sg44
g45
sg14
g35
sbasg23
(dp520
sg25
(lp521
S'/opt/intel/compilerpro-12.0.0.084/compiler/lib/intel64'
p522
aS'/opt/intel/composer_xe_2011_sp1.6.233/mkl/lib/intel64'
p523
asg27
S'/apps/rhel5/mpich2-1.4.1p1/64/nemesis-intel-12.1/lib/libmpich.so.3.3'
p524
sg29
g43
sba(iFingerPrint.swirl
SwirlFile
p525
(dp526
g32
I00
sg10
(lp527
sg12
(lp528
sg14
g35
sg16
S'20a2f61aff86731aa560fb325d70c1a8'
p529
sg18
Nsg19
(lp530
(iFingerPrint.swirl
Dependency
p531
(dp532
g40
Nsg41
S'ld-linux-x86-64.so.2'
p533
sg29
g43
sg44
g45
sg14
g35
sba(iFingerPrint.swirl
Dependency
p534
(dp535
g40
Nsg41
S'libc.so.6'
p536
sg29
g43
sg44
g45
sg14
g35
sba(iFingerPrint.swirl
Dependency
p537
(dp538
g40
Nsg41
S'libc.so.6'
p539
sg29
g43
sg44
S'GLIBC_2.2.5'
p540
sg14
g35
sbasg21
(lp541
(iFingerPrint.swirl
Dependency
p542
(dp543
g40
Nsg41
S'libimf.so'
p544
sg29
g43
sg44
g45
sg14
g35
sbasg23
(dp545
sg25
(lp546
g45
asg27
S'/opt/intel/compilerpro-12.0.0.084/compiler/lib/intel64/libimf.so'
p547
sg29
g43
sba(iFingerPrint.swirl
SwirlFile
p548
(dp549
g32
I00
sg10
(lp550
sg12
(lp551
sg14
g35
sg16
S'cc5feabc302fe42196dd466c4361f3dc'
p552
sg18
Nsg19
(lp553
(iFingerPrint.swirl
Dependency
p554
(dp555
g40
Nsg41
S'ld-linux-x86-64.so.2'
p556
sg29
g43
sg44
g45
sg14
g35
sba(iFingerPrint.swirl
Dependency
p557
(dp558
g40
Nsg41
S'libc.so.6'
p559
sg29
g43
sg44
g45
sg14
g35
sba(iFingerPrint.swirl
Dependency
p560
(dp561
g40
Nsg41
S'libc.so.6'
p562
sg29
g43
sg44
S'GLIBC_2.2.5'
p563
sg14
g35
sbasg21
(lp564
(iFingerPrint.swirl
Dependency
p565
(dp566
g40
Nsg41
S'libintlc.so.5'
p567
sg29
g43
sg44
g45
sg14
g35
sbasg23
(dp568
sg25
(lp569
g45
asg27
S'/opt/intel/compilerpro-12.0.0.084/compiler/lib/intel64/libintlc.so.5'
p570
sg29
g43
sba(iFingerPrint.swirl
SwirlFile
p571
(dp572
g32
I00
sg10
(lp573
S'/lib64/libpthread.so.0'
p574
asg12
(lp575
sg14
g35
sg16
S'fdeba14ad403fc4e6c88286280eb70b4'
p576
sg18
Nsg19
(lp577
(iFingerPrint.swirl
Dependency
p578
(dp579
g40
Nsg41
S'ld-linux-x86-64.so.2'
p580
sg29
g43
sg44
g45
sg14
g35
sba(iFingerPrint.swirl
Dependency
p581
(dp582
g40
Nsg41
S'ld-linux-x86-64.so.2'
p583
sg29
g43
sg44
S'GLIBC_2.2.5'
p584
sg14
g35
sba(iFingerPrint.swirl
Dependency
p585
(dp586
g40
Nsg41
S'ld-linux-x86-64.so.2'
p587
sg29
g43
sg44
S'GLIBC_2.3'
p588
sg14
g35
sba(iFingerPrint.swirl
Dependency
p589
(dp590
g40
Nsg41
S'ld-linux-x86-64.so.2'
p591
sg29
g43
sg44
S'GLIBC_PRIVATE'
p592
sg14
g35
sba(iFingerPrint.swirl
Dependency
p593
(dp594
g40
Nsg41
S'libc.so.6'
p595
sg29
g43
sg44
g45
sg14
g35
sba(iFingerPrint.swirl
Dependency
p596
(dp597
g40
Nsg41
S'libc.so.6'
p598
sg29
g43
sg44
S'GLIBC_2.2.5'
p599
sg14
g35
sba(iFingerPrint.swirl
Dependency
p600
(dp601
g40
Nsg41
S'libc.so.6'
p602
sg29
g43
sg44
S'GLIBC_2.3.2'
p603
sg14
g35
sba(iFingerPrint.swirl
Dependency
p604
(dp605
g40
Nsg41
S'libc.so.6'
p606
sg29
g43
sg44
S'GLIBC_PRIVATE'
p607
sg14
g35
sbasg21
(lp608
(iFingerPrint.swirl
Dependency
p609
(dp610
g40
Nsg41
S'libpthread.so.0'
p611
sg29
g43
sg44
g45
sg14
g35
sba(iFingerPrint.swirl
Dependency
p612
(dp613
g40
Nsg41
S'libpthread.so.0'
p614
sg29
g43
sg44
S'GLIBC_2.2.5'
p615
sg14
g35
sba(iFingerPrint.swirl
Dependency
p616
(dp617
g40
Nsg41
S'libpthread.so.0'
p618
sg29
g43
sg44
S'GLIBC_2.2.6'
p619
sg14
g35
sba(iFingerPrint.swirl
Dependency
p620
(dp621
g40
Nsg41
S'libpthread.so.0'
p622
sg29
g43
sg44
S'GLIBC_2.3.2'
p623
sg14
g35
sba(iFingerPrint.swirl
Dependency
p624
(dp625
g40
Nsg41
S'libpthread.so.0'
p626
sg29
g43
sg44
S'GLIBC_2.3.3'
p627
sg14
g35
sba(iFingerPrint.swirl
Dependency
p628
(dp629
g40
Nsg41
S'libpthread.so.0'
p630
sg29
g43
sg44
S'GLIBC_2.3.4'
p631
sg14
g35
sba(iFingerPrint.swirl
Dependency
p632
(dp633
g40
Nsg41
S'libpthread.so.0'
p634
sg29
g43
sg44
S'GLIBC_2.4'
p635
sg14
g35
sba(iFingerPrint.swirl
Dependency
p636
(dp637
g40
Nsg41
S'libpthread.so.0'
p638
sg29
g43
sg44
S'GLIBC_PRIVATE'
p639
sg14
g35
sbasg23
(dp640
sg25
(lp641
g45
asg27
S'/lib64/libpthread-2.5.so'
p642
sg29
g43
sba(iFingerPrint.swirl
SwirlFile
p643
(dp644
g32
I00
sg10
(lp645
S'/lib64/librt.so.1'
p646
asg12
(lp647
sg14
g35
sg16
S'029e86f9a493105e2fc3026a14ff5544'
p648
sg18
Nsg19
(lp649
(iFingerPrint.swirl
Dependency
p650
(dp651
g40
Nsg41
S'ld-linux-x86-64.so.2'
p652
sg29
g43
sg44
g45
sg14
g35
sba(iFingerPrint.swirl
Dependency
p653
(dp654
g40
Nsg41
S'ld-linux-x86-64.so.2'
p655
sg29
g43
sg44
S'GLIBC_PRIVATE'
p656
sg14
g35
sba(iFingerPrint.swirl
Dependency
p657
(dp658
g40
Nsg41
S'libc.so.6'
p659
sg29
g43
sg44
g45
sg14
g35
sba(iFingerPrint.swirl
Dependency
p660
(dp661
g40
Nsg41
S'libc.so.6'
p662
sg29
g43
sg44
S'GLIBC_2.2.5'
p663
sg14
g35
sba(iFingerPrint.swirl
Dependency
p664
(dp665
g40
Nsg41
S'libc.so.6'
p666
sg29
g43
sg44
S'GLIBC_2.3.2'
p667
sg14
g35
sba(iFingerPrint.swirl
Dependency
p668
(dp669
g40
Nsg41
S'libc.so.6'
p670
sg29
g43
sg44
S'GLIBC_PRIVATE'
p671
sg14
g35
sba(iFingerPrint.swirl
Dependency
p672
(dp673
g40
Nsg41
S'libpthread.so.0'
p674
sg29
g43
sg44
g45
sg14
g35
sba(iFingerPrint.swirl
Dependency
p675
(dp676
g40
Nsg41
S'libpthread.so.0'
p677
sg29
g43
sg44
S'GLIBC_2.2.5'
p678
sg14
g35
sba(iFingerPrint.swirl
Dependency
p679
(dp680
g40
Nsg41
S'libpthread.so.0'
p681
sg29
g43
sg44
S'GLIBC_PRIVATE'
p682
sg14
g35
sbasg21
(lp683
(iFingerPrint.swirl
Dependency
p684
(dp685
g40
Nsg41
S'librt.so.1'
p686
sg29
g43
sg44
g45
sg14
g35
sba(iFingerPrint.swirl
Dependency
p687
(dp688
g40
Nsg41
S'librt.so.1'
p689
sg29
g43
sg44
S'GLIBC_2.2.5'
p690
sg14
g35
sba(iFingerPrint.swirl
Dependency
p691
(dp692
g40
Nsg41
S'librt.so.1'
p693
sg29
g43
sg44
S'GLIBC_2.3.3'
p694
sg14
g35
sba(iFingerPrint.swirl
Dependency
p695
(dp696
g40
Nsg41
S'librt.so.1'
p697
sg29
g43
sg44
S'GLIBC_2.3.4'
p698
sg14
g35
sba(iFingerPrint.swirl
Dependency
p699
(dp700
g40
Nsg41
S'librt.so.1'
p701
sg29
g43
sg44
S'GLIBC_2.4'
p702
sg14
g35
sbasg23
(dp703
sg25
(lp704
g45
asg27
S'/lib64/librt-2.5.so'
p705
sg29
g43
sba(iFingerPrint.swirl
SwirlFile
p706
(dp707
g32
I00
sg10
(lp708
sg12
(lp709
sg14
g35
sg16
S'4de1e3d198ded571fee0b741e2d755d0'
p710
sg18
Nsg19
(lp711
(iFingerPrint.swirl
Dependency
p712
(dp713
g40
Nsg41
S'ld-linux-x86-64.so.2'
p714
sg29
g43
sg44
g45
sg14
g35
sba(iFingerPrint.swirl
Dependency
p715
(dp716
g40
Nsg41
S'libc.so.6'
p717
sg29
g43
sg44
g45
sg14
g35
sbasg21
(lp718
(iFingerPrint.swirl
Dependency
p719
(dp720
g40
Nsg41
S'libsvml.so'
p721
sg29
g43
sg44
g45
sg14
g35
sbasg23
(dp722
sg25
(lp723
g45
asg27
S'/opt/intel/compilerpro-12.0.0.084/compiler/lib/intel64/libsvml.so'
p724
sg29
g43
sba(iFingerPrint.swirl
SwirlFile
p725
(dp726
g32
I00
sg10
(lp727
S'/apps/rhel5/mpich2-1.4.1p1/64/nemesis-intel-12.1/lib/libmpichcxx.so.3'
p728
asg12
(lp729
sg14
g35
sg16
S'bd2c63fd25243f99a8b8717fb0a8d278'
p730
sg18
Nsg19
(lp731
(iFingerPrint.swirl
Dependency
p732
(dp733
g40
Nsg41
S'ld-linux-x86-64.so.2'
p734
sg29
g43
sg44
g45
sg14
g35
sba(iFingerPrint.swirl
Dependency
p735
(dp736
g40
Nsg41
S'libc.so.6'
p737
sg29
g43
sg44
g45
sg14
g35
sba(iFingerPrint.swirl
Dependency
p738
(dp739
g40
Nsg41
S'libc.so.6'
p740
sg29
g43
sg44
S'GLIBC_2.2.5'
p741
sg14
g35
sba(iFingerPrint.swirl
Dependency
p742
(dp743
g40
Nsg41
S'libdl.so.2'
p744
sg29
g43
sg44
g45
sg14
g35
sba(iFingerPrint.swirl
Dependency
p745
(dp746
g40
Nsg41
S'libgcc_s.so.1'
p747
sg29
g43
sg44
g45
sg14
g35
sba(iFingerPrint.swirl
Dependency
p748
(dp749
g40
Nsg41
S'libgcc_s.so.1'
p750
sg29
g43
sg44
S'GCC_3.0'
p751
sg14
g35
sba(iFingerPrint.swirl
Dependency
p752
(dp753
g40
Nsg41
S'libimf.so'
p754
sg29
g43
sg44
g45
sg14
g35
sba(iFingerPrint.swirl
Dependency
p755
(dp756
g40
Nsg41
S'libintlc.so.5'
p757
sg29
g43
sg44
g45
sg14
g35
sba(iFingerPrint.swirl
Dependency
p758
(dp759
g40
Nsg41
S'libm.so.6'
p760
sg29
g43
sg44
g45
sg14
g35
sba(iFingerPrint.swirl
Dependency
p761
(dp762
g40
Nsg41
S'libmpich.so.3'
p763
sg29
g43
sg44
g45
sg14
g35
sba(iFingerPrint.swirl
Dependency
p764
(dp765
g40
Nsg41
S'libpthread.so.0'
p766
sg29
g43
sg44
g45
sg14
g35
sba(iFingerPrint.swirl
Dependency
p767
(dp768
g40
Nsg41
S'librt.so.1'
p769
sg29
g43
sg44
g45
sg14
g35
sba(iFingerPrint.swirl
Dependency
p770
(dp771
g40
Nsg41
S'libstdc++.so.6'
p772
sg29
g43
sg44
g45
sg14
g35
sba(iFingerPrint.swirl
Dependency
p773
(dp774
g40
Nsg41
S'libstdc++.so.6'
p775
sg29
g43
sg44
S'CXXABI_1.3'
p776
sg14
g35
sba(iFingerPrint.swirl
Dependency
p777
(dp778
g40
Nsg41
S'libstdc++.so.6'
p779
sg29
g43
sg44
S'GLIBCXX_3.4'
p780
sg14
g35
sba(iFingerPrint.swirl
Dependency
p781
(dp782
g40
Nsg41
S'libsvml.so'
p783
sg29
g43
sg44
g45
sg14
g35
sbasg21
(lp784
(iFingerPrint.swirl
Dependency
p785
(dp786
g40
Nsg41
S'libmpichcxx.so.3'
p787
sg29
g43
sg44
g45
sg14
g35
sbasg23
(dp788
sg25
(lp789
S'/opt/intel/compilerpro-12.0.0.084/compiler/lib/intel64'
p790
aS'/opt/intel/composer_xe_2011_sp1.6.233/mkl/lib/intel64'
p791
asg27
S'/apps/rhel5/mpich2-1.4.1p1/64/nemesis-intel-12.1/lib/libmpichcxx.so.3.3'
p792
sg29
g43
sba(iFingerPrint.swirl
SwirlFile
p793
(dp794
g32
I00
sg10
(lp795
S'/usr/lib64/libstdc++.so.6'
p796
asg12
(lp797
sg14
g35
sg16
S'c267f07df2d95886fec6a165d6081a22'
p798
sg18
Nsg19
(lp799
(iFingerPrint.swirl
Dependency
p800
(dp801
g40
Nsg41
S'ld-linux-x86-64.so.2'
p802
sg29
g43
sg44
g45
sg14
g35
sba(iFingerPrint.swirl
Dependency
p803
(dp804
g40
Nsg41
S'ld-linux-x86-64.so.2'
p805
sg29
g43
sg44
S'GLIBC_2.3'
p806
sg14
g35
sba(iFingerPrint.swirl
Dependency
p807
(dp808
g40
Nsg41
S'libc.so.6'
p809
sg29
g43
sg44
g45
sg14
g35
sba(iFingerPrint.swirl
Dependency
p810
(dp811
g40
Nsg41
S'libc.so.6'
p812
sg29
g43
sg44
S'GLIBC_2.2.5'
p813
sg14
g35
sba(iFingerPrint.swirl
Dependency
p814
(dp815
g40
Nsg41
S'libc.so.6'
p816
sg29
g43
sg44
S'GLIBC_2.3'
p817
sg14
g35
sba(iFingerPrint.swirl
Dependency
p818
(dp819
g40
Nsg41
S'libc.so.6'
p820
sg29
g43
sg44
S'GLIBC_2.3.2'
p821
sg14
g35
sba(iFingerPrint.swirl
Dependency
p822
(dp823
g40
Nsg41
S'libc.so.6'
p824
sg29
g43
sg44
S'GLIBC_2.4'
p825
sg14
g35
sba(iFingerPrint.swirl
Dependency
p826
(dp827
g40
Nsg41
S'libgcc_s.so.1'
p828
sg29
g43
sg44
g45
sg14
g35
sba(iFingerPrint.swirl
Dependency
p829
(dp830
g40
Nsg41
S'libgcc_s.so.1'
p831
sg29
g43
sg44
S'GCC_3.0'
p832
sg14
g35
sba(iFingerPrint.swirl
Dependency
p833
(dp834
g40
Nsg41
S'libgcc_s.so.1'
p835
sg29
g43
sg44
S'GCC_3.3'
p836
sg14
g35
sba(iFingerPrint.swirl
Dependency
p837
(dp838
g40
Nsg41
S'libgcc_s.so.1'
p839
sg29
g43
sg44
S'GCC_4.2.0'
p840
sg14
g35
sba(iFingerPrint.swirl
Dependency
p841
(dp842
g40
Nsg41
S'libm.so.6'
p843
sg29
g43
sg44
g45
sg14
g35
sbasg21
(lp844
(iFingerPrint.swirl
Dependency
p845
(dp846
g40
Nsg41
S'libstdc++.so.6'
p847
sg29
g43
sg44
g45
sg14
g35
sba(iFingerPrint.swirl
Dependency
p848
(dp849
g40
Nsg41
S'libstdc++.so.6'
p850
sg29
g43
sg44
S'CXXABI_1.3'
p851
sg14
g35
sba(iFingerPrint.swirl
Dependency
p852
(dp853
g40
Nsg41
S'libstdc++.so.6'
p854
sg29
g43
sg44
S'CXXABI_1.3.1'
p855
sg14
g35
sba(iFingerPrint.swirl
Dependency
p856
(dp857
g40
Nsg41
S'libstdc++.so.6'
p858
sg29
g43
sg44
S'GLIBCXX_3.4'
p859
sg14
g35
sba(iFingerPrint.swirl
Dependency
p860
(dp861
g40
Nsg41
S'libstdc++.so.6'
p862
sg29
g43
sg44
S'GLIBCXX_3.4.1'
p863
sg14
g35
sba(iFingerPrint.swirl
Dependency
p864
(dp865
g40
Nsg41
S'libstdc++.so.6'
p866
sg29
g43
sg44
S'GLIBCXX_3.4.2'
p867
sg14
g35
sba(iFingerPrint.swirl
Dependency
p868
(dp869
g40
Nsg41
S'libstdc++.so.6'
p870
sg29
g43
sg44
S'GLIBCXX_3.4.3'
p871
sg14
g35
sba(iFingerPrint.swirl
Dependency
p872
(dp873
g40
Nsg41
S'libstdc++.so.6'
p874
sg29
g43
sg44
S'GLIBCXX_3.4.4'
p875
sg14
g35
sba(iFingerPrint.swirl
Dependency
p876
(dp877
g40
Nsg41
S'libstdc++.so.6'
p878
sg29
g43
sg44
S'GLIBCXX_3.4.5'
p879
sg14
g35
sba(iFingerPrint.swirl
Dependency
p880
(dp881
g40
Nsg41
S'libstdc++.so.6'
p882
sg29
g43
sg44
S'GLIBCXX_3.4.6'
p883
sg14
g35
sba(iFingerPrint.swirl
Dependency
p884
(dp885
g40
Nsg41
S'libstdc++.so.6'
p886
sg29
g43
sg44
S'GLIBCXX_3.4.7'
p887
sg14
g35
sba(iFingerPrint.swirl
Dependency
p888
(dp889
g40
Nsg41
S'libstdc++.so.6'
p890
sg29
g43
sg44
S'GLIBCXX_3.4.8'
p891
sg14
g35
sbasg23
(dp892
sg25
(lp893
g45
asg27
S'/usr/lib64/libstdc++.so.6.0.8'
p894
sg29
g43
sba(iFingerPrint.swirl
SwirlFile
p895
(dp896
g32
I00
sg10
(lp897
S'/apps/rhel5/mpich2-1.4.1p1/64/nemesis-intel-12.1/lib/libmpl.so.1'
p898
asg12
(lp899
sg14
g35
sg16
S'fc80d0c1a1ca8c6112231ab640e51257'
p900
sg18
Nsg19
(lp901
(iFingerPrint.swirl
Dependency
p902
(dp903
g40
Nsg41
S'ld-linux-x86-64.so.2'
p904
sg29
g43
sg44
g45
sg14
g35
sba(iFingerPrint.swirl
Dependency
p905
(dp906
g40
Nsg41
S'libc.so.6'
p907
sg29
g43
sg44
g45
sg14
g35
sba(iFingerPrint.swirl
Dependency
p908
(dp909
g40
Nsg41
S'libc.so.6'
p910
sg29
g43
sg44
S'GLIBC_2.2.5'
p911
sg14
g35
sba(iFingerPrint.swirl
Dependency
p912
(dp913
g40
Nsg41
S'libc.so.6'
p914
sg29
g43
sg44
S'GLIBC_2.3'
p915
sg14
g35
sba(iFingerPrint.swirl
Dependency
p916
(dp917
g40
Nsg41
S'libdl.so.2'
p918
sg29
g43
sg44
g45
sg14
g35
sba(iFingerPrint.swirl
Dependency
p919
(dp920
g40
Nsg41
S'libgcc_s.so.1'
p921
sg29
g43
sg44
g45
sg14
g35
sba(iFingerPrint.swirl
Dependency
p922
(dp923
g40
Nsg41
S'libimf.so'
p924
sg29
g43
sg44
g45
sg14
g35
sba(iFingerPrint.swirl
Dependency
p925
(dp926
g40
Nsg41
S'libintlc.so.5'
p927
sg29
g43
sg44
g45
sg14
g35
sba(iFingerPrint.swirl
Dependency
p928
(dp929
g40
Nsg41
S'libm.so.6'
p930
sg29
g43
sg44
g45
sg14
g35
sba(iFingerPrint.swirl
Dependency
p931
(dp932
g40
Nsg41
S'libsvml.so'
p933
sg29
g43
sg44
g45
sg14
g35
sbasg21
(lp934
(iFingerPrint.swirl
Dependency
p935
(dp936
g40
Nsg41
S'libmpl.so.1'
p937
sg29
g43
sg44
g45
sg14
g35
sbasg23
(dp938
sg25
(lp939
S'/opt/intel/compilerpro-12.0.0.084/compiler/lib/intel64'
p940
aS'/opt/intel/composer_xe_2011_sp1.6.233/mkl/lib/intel64'
p941
asg27
S'/apps/rhel5/mpich2-1.4.1p1/64/nemesis-intel-12.1/lib/libmpl.so.1.1.0'
p942
sg29
g43
sba(iFingerPrint.swirl
SwirlFile
p943
(dp944
g32
I00
sg10
(lp945
S'/apps/rhel5/mpich2-1.4.1p1/64/nemesis-intel-12.1/lib/libopa.so.1'
p946
asg12
(lp947
sg14
g35
sg16
S'aab56fdd43f0a0b174bba5aac88fd049'
p948
sg18
Nsg19
(lp949
(iFingerPrint.swirl
Dependency
p950
(dp951
g40
Nsg41
S'ld-linux-x86-64.so.2'
p952
sg29
g43
sg44
g45
sg14
g35
sba(iFingerPrint.swirl
Dependency
p953
(dp954
g40
Nsg41
S'libc.so.6'
p955
sg29
g43
sg44
g45
sg14
g35
sba(iFingerPrint.swirl
Dependency
p956
(dp957
g40
Nsg41
S'libc.so.6'
p958
sg29
g43
sg44
S'GLIBC_2.2.5'
p959
sg14
g35
sba(iFingerPrint.swirl
Dependency
p960
(dp961
g40
Nsg41
S'libdl.so.2'
p962
sg29
g43
sg44
g45
sg14
g35
sba(iFingerPrint.swirl
Dependency
p963
(dp964
g40
Nsg41
S'libgcc_s.so.1'
p965
sg29
g43
sg44
g45
sg14
g35
sba(iFingerPrint.swirl
Dependency
p966
(dp967
g40
Nsg41
S'libimf.so'
p968
sg29
g43
sg44
g45
sg14
g35
sba(iFingerPrint.swirl
Dependency
p969
(dp970
g40
Nsg41
S'libintlc.so.5'
p971
sg29
g43
sg44
g45
sg14
g35
sba(iFingerPrint.swirl
Dependency
p972
(dp973
g40
Nsg41
S'libm.so.6'
p974
sg29
g43
sg44
g45
sg14
g35
sba(iFingerPrint.swirl
Dependency
p975
(dp976
g40
Nsg41
S'libpthread.so.0'
p977
sg29
g43
sg44
g45
sg14
g35
sba(iFingerPrint.swirl
Dependency
p978
(dp979
g40
Nsg41
S'libpthread.so.0'
p980
sg29
g43
sg44
S'GLIBC_2.2.5'
p981
sg14
g35
sba(iFingerPrint.swirl
Dependency
p982
(dp983
g40
Nsg41
S'libsvml.so'
p984
sg29
g43
sg44
g45
sg14
g35
sbasg21
(lp985
(iFingerPrint.swirl
Dependency
p986
(dp987
g40
Nsg41
S'libopa.so.1'
p988
sg29
g43
sg44
g45
sg14
g35
sbasg23
(dp989
sg25
(lp990
S'/opt/intel/compilerpro-12.0.0.084/compiler/lib/intel64'
p991
aS'/opt/intel/composer_xe_2011_sp1.6.233/mkl/lib/intel64'
p992
asg27
S'/apps/rhel5/mpich2-1.4.1p1/64/nemesis-intel-12.1/lib/libopa.so.1.0.0'
p993
sg29
g43
sba(iFingerPrint.swirl
SwirlFile
p994
(dp995
g32
I01
sg10
(lp996
sg12
(lp997
sg14
g35
sg16
S'a7d9d8a6db061b8682e32d0d0da7ba52'
p998
sg18
Nsg19
(lp999
(iFingerPrint.swirl
Dependency
p1000
(dp1001
g40
Nsg41
S'ld-linux-x86-64.so.2'
p1002
sg29
g43
sg44
g45
sg14
g35
sba(iFingerPrint.swirl
Dependency
p1003
(dp1004
g40
Nsg41
S'libc.so.6'
p1005
sg29
g43
sg44
g45
sg14
g35
sba(iFingerPrint.swirl
Dependency
p1006
(dp1007
g40
Nsg41
S'libc.so.6'
p1008
sg29
g43
sg44
S'GLIBC_2.2.5'
p1009
sg14
g35
sba(iFingerPrint.swirl
Dependency
p1010
(dp1011
g40
Nsg41
S'libc.so.6'
p1012
sg29
g43
sg44
S'GLIBC_2.3'
p1013
sg14
g35
sba(iFingerPrint.swirl
Dependency
p1014
(dp1015
g40
Nsg41
S'libdl.so.2'
p1016
sg29
g43
sg44
g45
sg14
g35
sba(iFingerPrint.swirl
Dependency
p1017
(dp1018
g40
Nsg41
S'libgcc_s.so.1'
p1019
sg29
g43
sg44
g45
sg14
g35
sba(iFingerPrint.swirl
Dependency
p1020
(dp1021
g40
Nsg41
S'libm.so.6'
p1022
sg29
g43
sg44
g45
sg14
g35
sbasg21
(lp1023
sg23
(dp1024
sg25
(lp1025
g45
asg27
S'namd/bin/psfgen'
p1026
sg29
g43
sbasS'cmdLine'
p1027
NsS'creationDate'
p1028
cdatetime
datetime
p1029
(S'\x07\xdd\x05\x15\x000\x17\x004\xa3'
p1030
tp1031
Rp1032
sS'name'
p1033
S'Swirl'
p1034
sS'execedFiles'
p1035
(lp1036
g8
ag30
ag297
ag326
ag994
asb.