ccopy_reg
_reconstructor
p0
(cFingerPrint.swirl
Swirl
p1
c__builtin__
object
p2
Ntp3
Rp4
(dp5
S'swirlFiles'
p6
(lp7
(iFingerPrint.swirl
SwirlFile
p8
(dp9
S'links'
p10
(lp11
sS'dynamicDependencies'
p12
(lp13
sS'type'
p14
S'Data'
p15
sS'md5sum'
p16
S'3357dc3007fff11565962f75b8d8a3b9'
p17
sS'package'
p18
NsS'staticDependencies'
p19
(lp20
sS'provides'
p21
(lp22
sS'openedFiles'
p23
(lp24
sS'path'
p25
S'namd/bin/charmrun'
p26
sS'arch'
p27
Nsba(iFingerPrint.swirl
SwirlFile
p28
(dp29
g10
(lp30
sg12
(lp31
sg14
S'ELF'
p32
sg16
S'e393e6b2a3fc2239242e43f3d19e835e'
p33
sg18
Nsg19
(lp34
(iFingerPrint.swirl
Dependency
p35
(dp36
S'hwcap'
p37
NsS'major'
p38
S'ld-linux-x86-64.so.2'
p39
sg27
S'x86_64'
p40
sS'minor'
p41
S''
p42
sg14
g32
sba(iFingerPrint.swirl
Dependency
p43
(dp44
g37
Nsg38
S'libc.so.6'
p45
sg27
g40
sg41
g42
sg14
g32
sba(iFingerPrint.swirl
Dependency
p46
(dp47
g37
Nsg38
S'libc.so.6'
p48
sg27
g40
sg41
S'GLIBC_2.2.5'
p49
sg14
g32
sba(iFingerPrint.swirl
Dependency
p50
(dp51
g37
Nsg38
S'libdl.so.2'
p52
sg27
g40
sg41
g42
sg14
g32
sba(iFingerPrint.swirl
Dependency
p53
(dp54
g37
Nsg38
S'libgcc_s.so.1'
p55
sg27
g40
sg41
g42
sg14
g32
sba(iFingerPrint.swirl
Dependency
p56
(dp57
g37
Nsg38
S'libm.so.6'
p58
sg27
g40
sg41
g42
sg14
g32
sbasg21
(lp59
sg23
(lp60
sg25
S'namd/bin/flipbinpdb'
p61
sg27
g40
sba(iFingerPrint.swirl
SwirlFile
p62
(dp63
g10
(lp64
S'/lib64/ld-linux-x86-64.so.2'
p65
asg12
(lp66
sg14
g32
sg16
S'7b258e07eeb7a69fcf889fb65ed19ddf'
p67
sg18
Nsg19
(lp68
sg21
(lp69
(iFingerPrint.swirl
Dependency
p70
(dp71
g37
Nsg38
S'ld-linux-x86-64.so.2'
p72
sg27
g40
sg41
g42
sg14
g32
sba(iFingerPrint.swirl
Dependency
p73
(dp74
g37
Nsg38
S'ld-linux-x86-64.so.2'
p75
sg27
g40
sg41
S'GLIBC_2.2.5'
p76
sg14
g32
sba(iFingerPrint.swirl
Dependency
p77
(dp78
g37
Nsg38
S'ld-linux-x86-64.so.2'
p79
sg27
g40
sg41
S'GLIBC_2.3'
p80
sg14
g32
sba(iFingerPrint.swirl
Dependency
p81
(dp82
g37
Nsg38
S'ld-linux-x86-64.so.2'
p83
sg27
g40
sg41
S'GLIBC_2.4'
p84
sg14
g32
sba(iFingerPrint.swirl
Dependency
p85
(dp86
g37
Nsg38
S'ld-linux-x86-64.so.2'
p87
sg27
g40
sg41
S'GLIBC_PRIVATE'
p88
sg14
g32
sbasg23
(lp89
sg25
S'/lib64/ld-2.5.so'
p90
sg27
g40
sba(iFingerPrint.swirl
SwirlFile
p91
(dp92
g10
(lp93
S'/lib64/libc.so.6'
p94
asg12
(lp95
sg14
g32
sg16
S'1c6405127c31943229e3547acf291153'
p96
sg18
Nsg19
(lp97
(iFingerPrint.swirl
Dependency
p98
(dp99
g37
Nsg38
S'ld-linux-x86-64.so.2'
p100
sg27
g40
sg41
g42
sg14
g32
sba(iFingerPrint.swirl
Dependency
p101
(dp102
g37
Nsg38
S'ld-linux-x86-64.so.2'
p103
sg27
g40
sg41
S'GLIBC_2.3'
p104
sg14
g32
sba(iFingerPrint.swirl
Dependency
p105
(dp106
g37
Nsg38
S'ld-linux-x86-64.so.2'
p107
sg27
g40
sg41
S'GLIBC_PRIVATE'
p108
sg14
g32
sbasg21
(lp109
(iFingerPrint.swirl
Dependency
p110
(dp111
g37
Nsg38
S'libc.so.6'
p112
sg27
g40
sg41
g42
sg14
g32
sba(iFingerPrint.swirl
Dependency
p113
(dp114
g37
Nsg38
S'libc.so.6'
p115
sg27
g40
sg41
S'GLIBC_2.2.5'
p116
sg14
g32
sba(iFingerPrint.swirl
Dependency
p117
(dp118
g37
Nsg38
S'libc.so.6'
p119
sg27
g40
sg41
S'GLIBC_2.2.6'
p120
sg14
g32
sba(iFingerPrint.swirl
Dependency
p121
(dp122
g37
Nsg38
S'libc.so.6'
p123
sg27
g40
sg41
S'GLIBC_2.3'
p124
sg14
g32
sba(iFingerPrint.swirl
Dependency
p125
(dp126
g37
Nsg38
S'libc.so.6'
p127
sg27
g40
sg41
S'GLIBC_2.3.2'
p128
sg14
g32
sba(iFingerPrint.swirl
Dependency
p129
(dp130
g37
Nsg38
S'libc.so.6'
p131
sg27
g40
sg41
S'GLIBC_2.3.3'
p132
sg14
g32
sba(iFingerPrint.swirl
Dependency
p133
(dp134
g37
Nsg38
S'libc.so.6'
p135
sg27
g40
sg41
S'GLIBC_2.3.4'
p136
sg14
g32
sba(iFingerPrint.swirl
Dependency
p137
(dp138
g37
Nsg38
S'libc.so.6'
p139
sg27
g40
sg41
S'GLIBC_2.4'
p140
sg14
g32
sba(iFingerPrint.swirl
Dependency
p141
(dp142
g37
Nsg38
S'libc.so.6'
p143
sg27
g40
sg41
S'GLIBC_2.5'
p144
sg14
g32
sba(iFingerPrint.swirl
Dependency
p145
(dp146
g37
Nsg38
S'libc.so.6'
p147
sg27
g40
sg41
S'GLIBC_PRIVATE'
p148
sg14
g32
sbasg23
(lp149
sg25
S'/lib64/libc-2.5.so'
p150
sg27
g40
sba(iFingerPrint.swirl
SwirlFile
p151
(dp152
g10
(lp153
S'/lib64/libdl.so.2'
p154
asg12
(lp155
sg14
g32
sg16
S'fe2fa5c6f4ae8b2da84065c0dd52da59'
p156
sg18
Nsg19
(lp157
(iFingerPrint.swirl
Dependency
p158
(dp159
g37
Nsg38
S'ld-linux-x86-64.so.2'
p160
sg27
g40
sg41
g42
sg14
g32
sba(iFingerPrint.swirl
Dependency
p161
(dp162
g37
Nsg38
S'ld-linux-x86-64.so.2'
p163
sg27
g40
sg41
S'GLIBC_PRIVATE'
p164
sg14
g32
sba(iFingerPrint.swirl
Dependency
p165
(dp166
g37
Nsg38
S'libc.so.6'
p167
sg27
g40
sg41
g42
sg14
g32
sba(iFingerPrint.swirl
Dependency
p168
(dp169
g37
Nsg38
S'libc.so.6'
p170
sg27
g40
sg41
S'GLIBC_2.2.5'
p171
sg14
g32
sba(iFingerPrint.swirl
Dependency
p172
(dp173
g37
Nsg38
S'libc.so.6'
p174
sg27
g40
sg41
S'GLIBC_PRIVATE'
p175
sg14
g32
sbasg21
(lp176
(iFingerPrint.swirl
Dependency
p177
(dp178
g37
Nsg38
S'libdl.so.2'
p179
sg27
g40
sg41
g42
sg14
g32
sba(iFingerPrint.swirl
Dependency
p180
(dp181
g37
Nsg38
S'libdl.so.2'
p182
sg27
g40
sg41
S'GLIBC_2.2.5'
p183
sg14
g32
sba(iFingerPrint.swirl
Dependency
p184
(dp185
g37
Nsg38
S'libdl.so.2'
p186
sg27
g40
sg41
S'GLIBC_2.3.3'
p187
sg14
g32
sba(iFingerPrint.swirl
Dependency
p188
(dp189
g37
Nsg38
S'libdl.so.2'
p190
sg27
g40
sg41
S'GLIBC_2.3.4'
p191
sg14
g32
sba(iFingerPrint.swirl
Dependency
p192
(dp193
g37
Nsg38
S'libdl.so.2'
p194
sg27
g40
sg41
S'GLIBC_PRIVATE'
p195
sg14
g32
sbasg23
(lp196
sg25
S'/lib64/libdl-2.5.so'
p197
sg27
g40
sba(iFingerPrint.swirl
SwirlFile
p198
(dp199
g10
(lp200
S'/lib64/libgcc_s.so.1'
p201
asg12
(lp202
sg14
g32
sg16
S'b826dab581b5cdb143a9cb9a4c46dc9f'
p203
sg18
Nsg19
(lp204
(iFingerPrint.swirl
Dependency
p205
(dp206
g37
Nsg38
S'ld-linux-x86-64.so.2'
p207
sg27
g40
sg41
g42
sg14
g32
sba(iFingerPrint.swirl
Dependency
p208
(dp209
g37
Nsg38
S'libc.so.6'
p210
sg27
g40
sg41
g42
sg14
g32
sba(iFingerPrint.swirl
Dependency
p211
(dp212
g37
Nsg38
S'libc.so.6'
p213
sg27
g40
sg41
S'GLIBC_2.2.5'
p214
sg14
g32
sba(iFingerPrint.swirl
Dependency
p215
(dp216
g37
Nsg38
S'libc.so.6'
p217
sg27
g40
sg41
S'GLIBC_2.4'
p218
sg14
g32
sbasg21
(lp219
(iFingerPrint.swirl
Dependency
p220
(dp221
g37
Nsg38
S'libgcc_s.so.1'
p222
sg27
g40
sg41
g42
sg14
g32
sba(iFingerPrint.swirl
Dependency
p223
(dp224
g37
Nsg38
S'libgcc_s.so.1'
p225
sg27
g40
sg41
S'GCC_3.0'
p226
sg14
g32
sba(iFingerPrint.swirl
Dependency
p227
(dp228
g37
Nsg38
S'libgcc_s.so.1'
p229
sg27
g40
sg41
S'GCC_3.3'
p230
sg14
g32
sba(iFingerPrint.swirl
Dependency
p231
(dp232
g37
Nsg38
S'libgcc_s.so.1'
p233
sg27
g40
sg41
S'GCC_3.3.1'
p234
sg14
g32
sba(iFingerPrint.swirl
Dependency
p235
(dp236
g37
Nsg38
S'libgcc_s.so.1'
p237
sg27
g40
sg41
S'GCC_3.4'
p238
sg14
g32
sba(iFingerPrint.swirl
Dependency
p239
(dp240
g37
Nsg38
S'libgcc_s.so.1'
p241
sg27
g40
sg41
S'GCC_3.4.2'
p242
sg14
g32
sba(iFingerPrint.swirl
Dependency
p243
(dp244
g37
Nsg38
S'libgcc_s.so.1'
p245
sg27
g40
sg41
S'GCC_3.4.4'
p246
sg14
g32
sba(iFingerPrint.swirl
Dependency
p247
(dp248
g37
Nsg38
S'libgcc_s.so.1'
p249
sg27
g40
sg41
S'GCC_4.0.0'
p250
sg14
g32
sba(iFingerPrint.swirl
Dependency
p251
(dp252
g37
Nsg38
S'libgcc_s.so.1'
p253
sg27
g40
sg41
S'GCC_4.2.0'
p254
sg14
g32
sbasg23
(lp255
sg25
S'/lib64/libgcc_s-4.1.2-20080825.so.1'
p256
sg27
g40
sba(iFingerPrint.swirl
SwirlFile
p257
(dp258
g10
(lp259
S'/lib64/libm.so.6'
p260
asg12
(lp261
sg14
g32
sg16
S'91991b2ce457e3e5784b5afa9febfcaf'
p262
sg18
Nsg19
(lp263
(iFingerPrint.swirl
Dependency
p264
(dp265
g37
Nsg38
S'ld-linux-x86-64.so.2'
p266
sg27
g40
sg41
g42
sg14
g32
sba(iFingerPrint.swirl
Dependency
p267
(dp268
g37
Nsg38
S'libc.so.6'
p269
sg27
g40
sg41
g42
sg14
g32
sba(iFingerPrint.swirl
Dependency
p270
(dp271
g37
Nsg38
S'libc.so.6'
p272
sg27
g40
sg41
S'GLIBC_2.2.5'
p273
sg14
g32
sbasg21
(lp274
(iFingerPrint.swirl
Dependency
p275
(dp276
g37
Nsg38
S'libm.so.6'
p277
sg27
g40
sg41
g42
sg14
g32
sba(iFingerPrint.swirl
Dependency
p278
(dp279
g37
Nsg38
S'libm.so.6'
p280
sg27
g40
sg41
S'GLIBC_2.2.5'
p281
sg14
g32
sba(iFingerPrint.swirl
Dependency
p282
(dp283
g37
Nsg38
S'libm.so.6'
p284
sg27
g40
sg41
S'GLIBC_2.4'
p285
sg14
g32
sbasg23
(lp286
sg25
S'/lib64/libm-2.5.so'
p287
sg27
g40
sba(iFingerPrint.swirl
SwirlFile
p288
(dp289
g10
(lp290
sg12
(lp291
sg14
g32
sg16
S'3cfbf8d42975038814b9fa657e9252a2'
p292
sg18
Nsg19
(lp293
(iFingerPrint.swirl
Dependency
p294
(dp295
g37
Nsg38
S'ld-linux-x86-64.so.2'
p296
sg27
g40
sg41
g42
sg14
g32
sba(iFingerPrint.swirl
Dependency
p297
(dp298
g37
Nsg38
S'libc.so.6'
p299
sg27
g40
sg41
g42
sg14
g32
sba(iFingerPrint.swirl
Dependency
p300
(dp301
g37
Nsg38
S'libc.so.6'
p302
sg27
g40
sg41
S'GLIBC_2.2.5'
p303
sg14
g32
sba(iFingerPrint.swirl
Dependency
p304
(dp305
g37
Nsg38
S'libdl.so.2'
p306
sg27
g40
sg41
g42
sg14
g32
sba(iFingerPrint.swirl
Dependency
p307
(dp308
g37
Nsg38
S'libgcc_s.so.1'
p309
sg27
g40
sg41
g42
sg14
g32
sba(iFingerPrint.swirl
Dependency
p310
(dp311
g37
Nsg38
S'libm.so.6'
p312
sg27
g40
sg41
g42
sg14
g32
sbasg21
(lp313
sg23
(lp314
sg25
S'namd/bin/flipdcd'
p315
sg27
g40
sba(iFingerPrint.swirl
SwirlFile
p316
(dp317
g10
(lp318
sg12
(lp319
sg14
g32
sg16
S'243099a440adeb5e2694a5036f34c057'
p320
sg18
Nsg19
(lp321
(iFingerPrint.swirl
Dependency
p322
(dp323
g37
Nsg38
S'ld-linux-x86-64.so.2'
p324
sg27
g40
sg41
g42
sg14
g32
sba(iFingerPrint.swirl
Dependency
p325
(dp326
g37
Nsg38
S'libc.so.6'
p327
sg27
g40
sg41
g42
sg14
g32
sba(iFingerPrint.swirl
Dependency
p328
(dp329
g37
Nsg38
S'libc.so.6'
p330
sg27
g40
sg41
S'GLIBC_2.2.5'
p331
sg14
g32
sba(iFingerPrint.swirl
Dependency
p332
(dp333
g37
Nsg38
S'libc.so.6'
p334
sg27
g40
sg41
S'GLIBC_2.3'
p335
sg14
g32
sba(iFingerPrint.swirl
Dependency
p336
(dp337
g37
Nsg38
S'libc.so.6'
p338
sg27
g40
sg41
S'GLIBC_2.3.4'
p339
sg14
g32
sba(iFingerPrint.swirl
Dependency
p340
(dp341
g37
Nsg38
S'libdl.so.2'
p342
sg27
g40
sg41
g42
sg14
g32
sba(iFingerPrint.swirl
Dependency
p343
(dp344
g37
Nsg38
S'libfftw3f.so.3'
p345
sg27
g40
sg41
g42
sg14
g32
sba(iFingerPrint.swirl
Dependency
p346
(dp347
g37
Nsg38
S'libgcc_s.so.1'
p348
sg27
g40
sg41
g42
sg14
g32
sba(iFingerPrint.swirl
Dependency
p349
(dp350
g37
Nsg38
S'libgcc_s.so.1'
p351
sg27
g40
sg41
S'GCC_3.0'
p352
sg14
g32
sba(iFingerPrint.swirl
Dependency
p353
(dp354
g37
Nsg38
S'libm.so.6'
p355
sg27
g40
sg41
g42
sg14
g32
sba(iFingerPrint.swirl
Dependency
p356
(dp357
g37
Nsg38
S'libmpich.so.3'
p358
sg27
g40
sg41
g42
sg14
g32
sba(iFingerPrint.swirl
Dependency
p359
(dp360
g37
Nsg38
S'libmpichcxx.so.3'
p361
sg27
g40
sg41
g42
sg14
g32
sba(iFingerPrint.swirl
Dependency
p362
(dp363
g37
Nsg38
S'libmpl.so.1'
p364
sg27
g40
sg41
g42
sg14
g32
sba(iFingerPrint.swirl
Dependency
p365
(dp366
g37
Nsg38
S'libopa.so.1'
p367
sg27
g40
sg41
g42
sg14
g32
sba(iFingerPrint.swirl
Dependency
p368
(dp369
g37
Nsg38
S'libpthread.so.0'
p370
sg27
g40
sg41
g42
sg14
g32
sba(iFingerPrint.swirl
Dependency
p371
(dp372
g37
Nsg38
S'libpthread.so.0'
p373
sg27
g40
sg41
S'GLIBC_2.2.5'
p374
sg14
g32
sba(iFingerPrint.swirl
Dependency
p375
(dp376
g37
Nsg38
S'librt.so.1'
p377
sg27
g40
sg41
g42
sg14
g32
sba(iFingerPrint.swirl
Dependency
p378
(dp379
g37
Nsg38
S'libstdc++.so.6'
p380
sg27
g40
sg41
g42
sg14
g32
sba(iFingerPrint.swirl
Dependency
p381
(dp382
g37
Nsg38
S'libstdc++.so.6'
p383
sg27
g40
sg41
S'CXXABI_1.3'
p384
sg14
g32
sba(iFingerPrint.swirl
Dependency
p385
(dp386
g37
Nsg38
S'libstdc++.so.6'
p387
sg27
g40
sg41
S'GLIBCXX_3.4'
p388
sg14
g32
sbasg21
(lp389
sg23
(lp390
sg25
S'namd/bin/namd2'
p391
sg27
g40
sba(iFingerPrint.swirl
SwirlFile
p392
(dp393
g10
(lp394
S'/lib64/libpthread.so.0'
p395
asg12
(lp396
sg14
g32
sg16
S'fdeba14ad403fc4e6c88286280eb70b4'
p397
sg18
Nsg19
(lp398
(iFingerPrint.swirl
Dependency
p399
(dp400
g37
Nsg38
S'ld-linux-x86-64.so.2'
p401
sg27
g40
sg41
g42
sg14
g32
sba(iFingerPrint.swirl
Dependency
p402
(dp403
g37
Nsg38
S'ld-linux-x86-64.so.2'
p404
sg27
g40
sg41
S'GLIBC_2.2.5'
p405
sg14
g32
sba(iFingerPrint.swirl
Dependency
p406
(dp407
g37
Nsg38
S'ld-linux-x86-64.so.2'
p408
sg27
g40
sg41
S'GLIBC_2.3'
p409
sg14
g32
sba(iFingerPrint.swirl
Dependency
p410
(dp411
g37
Nsg38
S'ld-linux-x86-64.so.2'
p412
sg27
g40
sg41
S'GLIBC_PRIVATE'
p413
sg14
g32
sba(iFingerPrint.swirl
Dependency
p414
(dp415
g37
Nsg38
S'libc.so.6'
p416
sg27
g40
sg41
g42
sg14
g32
sba(iFingerPrint.swirl
Dependency
p417
(dp418
g37
Nsg38
S'libc.so.6'
p419
sg27
g40
sg41
S'GLIBC_2.2.5'
p420
sg14
g32
sba(iFingerPrint.swirl
Dependency
p421
(dp422
g37
Nsg38
S'libc.so.6'
p423
sg27
g40
sg41
S'GLIBC_2.3.2'
p424
sg14
g32
sba(iFingerPrint.swirl
Dependency
p425
(dp426
g37
Nsg38
S'libc.so.6'
p427
sg27
g40
sg41
S'GLIBC_PRIVATE'
p428
sg14
g32
sbasg21
(lp429
(iFingerPrint.swirl
Dependency
p430
(dp431
g37
Nsg38
S'libpthread.so.0'
p432
sg27
g40
sg41
g42
sg14
g32
sba(iFingerPrint.swirl
Dependency
p433
(dp434
g37
Nsg38
S'libpthread.so.0'
p435
sg27
g40
sg41
S'GLIBC_2.2.5'
p436
sg14
g32
sba(iFingerPrint.swirl
Dependency
p437
(dp438
g37
Nsg38
S'libpthread.so.0'
p439
sg27
g40
sg41
S'GLIBC_2.2.6'
p440
sg14
g32
sba(iFingerPrint.swirl
Dependency
p441
(dp442
g37
Nsg38
S'libpthread.so.0'
p443
sg27
g40
sg41
S'GLIBC_2.3.2'
p444
sg14
g32
sba(iFingerPrint.swirl
Dependency
p445
(dp446
g37
Nsg38
S'libpthread.so.0'
p447
sg27
g40
sg41
S'GLIBC_2.3.3'
p448
sg14
g32
sba(iFingerPrint.swirl
Dependency
p449
(dp450
g37
Nsg38
S'libpthread.so.0'
p451
sg27
g40
sg41
S'GLIBC_2.3.4'
p452
sg14
g32
sba(iFingerPrint.swirl
Dependency
p453
(dp454
g37
Nsg38
S'libpthread.so.0'
p455
sg27
g40
sg41
S'GLIBC_2.4'
p456
sg14
g32
sba(iFingerPrint.swirl
Dependency
p457
(dp458
g37
Nsg38
S'libpthread.so.0'
p459
sg27
g40
sg41
S'GLIBC_PRIVATE'
p460
sg14
g32
sbasg23
(lp461
sg25
S'/lib64/libpthread-2.5.so'
p462
sg27
g40
sba(iFingerPrint.swirl
SwirlFile
p463
(dp464
g10
(lp465
S'/lib64/librt.so.1'
p466
asg12
(lp467
sg14
g32
sg16
S'029e86f9a493105e2fc3026a14ff5544'
p468
sg18
Nsg19
(lp469
(iFingerPrint.swirl
Dependency
p470
(dp471
g37
Nsg38
S'ld-linux-x86-64.so.2'
p472
sg27
g40
sg41
g42
sg14
g32
sba(iFingerPrint.swirl
Dependency
p473
(dp474
g37
Nsg38
S'ld-linux-x86-64.so.2'
p475
sg27
g40
sg41
S'GLIBC_PRIVATE'
p476
sg14
g32
sba(iFingerPrint.swirl
Dependency
p477
(dp478
g37
Nsg38
S'libc.so.6'
p479
sg27
g40
sg41
g42
sg14
g32
sba(iFingerPrint.swirl
Dependency
p480
(dp481
g37
Nsg38
S'libc.so.6'
p482
sg27
g40
sg41
S'GLIBC_2.2.5'
p483
sg14
g32
sba(iFingerPrint.swirl
Dependency
p484
(dp485
g37
Nsg38
S'libc.so.6'
p486
sg27
g40
sg41
S'GLIBC_2.3.2'
p487
sg14
g32
sba(iFingerPrint.swirl
Dependency
p488
(dp489
g37
Nsg38
S'libc.so.6'
p490
sg27
g40
sg41
S'GLIBC_PRIVATE'
p491
sg14
g32
sba(iFingerPrint.swirl
Dependency
p492
(dp493
g37
Nsg38
S'libpthread.so.0'
p494
sg27
g40
sg41
g42
sg14
g32
sba(iFingerPrint.swirl
Dependency
p495
(dp496
g37
Nsg38
S'libpthread.so.0'
p497
sg27
g40
sg41
S'GLIBC_2.2.5'
p498
sg14
g32
sba(iFingerPrint.swirl
Dependency
p499
(dp500
g37
Nsg38
S'libpthread.so.0'
p501
sg27
g40
sg41
S'GLIBC_PRIVATE'
p502
sg14
g32
sbasg21
(lp503
(iFingerPrint.swirl
Dependency
p504
(dp505
g37
Nsg38
S'librt.so.1'
p506
sg27
g40
sg41
g42
sg14
g32
sba(iFingerPrint.swirl
Dependency
p507
(dp508
g37
Nsg38
S'librt.so.1'
p509
sg27
g40
sg41
S'GLIBC_2.2.5'
p510
sg14
g32
sba(iFingerPrint.swirl
Dependency
p511
(dp512
g37
Nsg38
S'librt.so.1'
p513
sg27
g40
sg41
S'GLIBC_2.3.3'
p514
sg14
g32
sba(iFingerPrint.swirl
Dependency
p515
(dp516
g37
Nsg38
S'librt.so.1'
p517
sg27
g40
sg41
S'GLIBC_2.3.4'
p518
sg14
g32
sba(iFingerPrint.swirl
Dependency
p519
(dp520
g37
Nsg38
S'librt.so.1'
p521
sg27
g40
sg41
S'GLIBC_2.4'
p522
sg14
g32
sbasg23
(lp523
sg25
S'/lib64/librt-2.5.so'
p524
sg27
g40
sba(iFingerPrint.swirl
SwirlFile
p525
(dp526
g10
(lp527
S'/usr/lib64/libstdc++.so.6'
p528
asg12
(lp529
sg14
g32
sg16
S'879b800245316ab603998fa31e60c270'
p530
sg18
Nsg19
(lp531
(iFingerPrint.swirl
Dependency
p532
(dp533
g37
Nsg38
S'ld-linux-x86-64.so.2'
p534
sg27
g40
sg41
g42
sg14
g32
sba(iFingerPrint.swirl
Dependency
p535
(dp536
g37
Nsg38
S'ld-linux-x86-64.so.2'
p537
sg27
g40
sg41
S'GLIBC_2.3'
p538
sg14
g32
sba(iFingerPrint.swirl
Dependency
p539
(dp540
g37
Nsg38
S'libc.so.6'
p541
sg27
g40
sg41
g42
sg14
g32
sba(iFingerPrint.swirl
Dependency
p542
(dp543
g37
Nsg38
S'libc.so.6'
p544
sg27
g40
sg41
S'GLIBC_2.2.5'
p545
sg14
g32
sba(iFingerPrint.swirl
Dependency
p546
(dp547
g37
Nsg38
S'libc.so.6'
p548
sg27
g40
sg41
S'GLIBC_2.3'
p549
sg14
g32
sba(iFingerPrint.swirl
Dependency
p550
(dp551
g37
Nsg38
S'libc.so.6'
p552
sg27
g40
sg41
S'GLIBC_2.3.2'
p553
sg14
g32
sba(iFingerPrint.swirl
Dependency
p554
(dp555
g37
Nsg38
S'libc.so.6'
p556
sg27
g40
sg41
S'GLIBC_2.4'
p557
sg14
g32
sba(iFingerPrint.swirl
Dependency
p558
(dp559
g37
Nsg38
S'libgcc_s.so.1'
p560
sg27
g40
sg41
g42
sg14
g32
sba(iFingerPrint.swirl
Dependency
p561
(dp562
g37
Nsg38
S'libgcc_s.so.1'
p563
sg27
g40
sg41
S'GCC_3.0'
p564
sg14
g32
sba(iFingerPrint.swirl
Dependency
p565
(dp566
g37
Nsg38
S'libgcc_s.so.1'
p567
sg27
g40
sg41
S'GCC_3.3'
p568
sg14
g32
sba(iFingerPrint.swirl
Dependency
p569
(dp570
g37
Nsg38
S'libgcc_s.so.1'
p571
sg27
g40
sg41
S'GCC_4.2.0'
p572
sg14
g32
sba(iFingerPrint.swirl
Dependency
p573
(dp574
g37
Nsg38
S'libm.so.6'
p575
sg27
g40
sg41
g42
sg14
g32
sbasg21
(lp576
(iFingerPrint.swirl
Dependency
p577
(dp578
g37
Nsg38
S'libstdc++.so.6'
p579
sg27
g40
sg41
g42
sg14
g32
sba(iFingerPrint.swirl
Dependency
p580
(dp581
g37
Nsg38
S'libstdc++.so.6'
p582
sg27
g40
sg41
S'CXXABI_1.3'
p583
sg14
g32
sba(iFingerPrint.swirl
Dependency
p584
(dp585
g37
Nsg38
S'libstdc++.so.6'
p586
sg27
g40
sg41
S'CXXABI_1.3.1'
p587
sg14
g32
sba(iFingerPrint.swirl
Dependency
p588
(dp589
g37
Nsg38
S'libstdc++.so.6'
p590
sg27
g40
sg41
S'GLIBCXX_3.4'
p591
sg14
g32
sba(iFingerPrint.swirl
Dependency
p592
(dp593
g37
Nsg38
S'libstdc++.so.6'
p594
sg27
g40
sg41
S'GLIBCXX_3.4.1'
p595
sg14
g32
sba(iFingerPrint.swirl
Dependency
p596
(dp597
g37
Nsg38
S'libstdc++.so.6'
p598
sg27
g40
sg41
S'GLIBCXX_3.4.2'
p599
sg14
g32
sba(iFingerPrint.swirl
Dependency
p600
(dp601
g37
Nsg38
S'libstdc++.so.6'
p602
sg27
g40
sg41
S'GLIBCXX_3.4.3'
p603
sg14
g32
sba(iFingerPrint.swirl
Dependency
p604
(dp605
g37
Nsg38
S'libstdc++.so.6'
p606
sg27
g40
sg41
S'GLIBCXX_3.4.4'
p607
sg14
g32
sba(iFingerPrint.swirl
Dependency
p608
(dp609
g37
Nsg38
S'libstdc++.so.6'
p610
sg27
g40
sg41
S'GLIBCXX_3.4.5'
p611
sg14
g32
sba(iFingerPrint.swirl
Dependency
p612
(dp613
g37
Nsg38
S'libstdc++.so.6'
p614
sg27
g40
sg41
S'GLIBCXX_3.4.6'
p615
sg14
g32
sba(iFingerPrint.swirl
Dependency
p616
(dp617
g37
Nsg38
S'libstdc++.so.6'
p618
sg27
g40
sg41
S'GLIBCXX_3.4.7'
p619
sg14
g32
sba(iFingerPrint.swirl
Dependency
p620
(dp621
g37
Nsg38
S'libstdc++.so.6'
p622
sg27
g40
sg41
S'GLIBCXX_3.4.8'
p623
sg14
g32
sbasg23
(lp624
sg25
S'/usr/lib64/libstdc++.so.6.0.8'
p625
sg27
g40
sba(iFingerPrint.swirl
SwirlFile
p626
(dp627
g10
(lp628
sg12
(lp629
sg14
g32
sg16
S'a7d9d8a6db061b8682e32d0d0da7ba52'
p630
sg18
Nsg19
(lp631
(iFingerPrint.swirl
Dependency
p632
(dp633
g37
Nsg38
S'ld-linux-x86-64.so.2'
p634
sg27
g40
sg41
g42
sg14
g32
sba(iFingerPrint.swirl
Dependency
p635
(dp636
g37
Nsg38
S'libc.so.6'
p637
sg27
g40
sg41
g42
sg14
g32
sba(iFingerPrint.swirl
Dependency
p638
(dp639
g37
Nsg38
S'libc.so.6'
p640
sg27
g40
sg41
S'GLIBC_2.2.5'
p641
sg14
g32
sba(iFingerPrint.swirl
Dependency
p642
(dp643
g37
Nsg38
S'libc.so.6'
p644
sg27
g40
sg41
S'GLIBC_2.3'
p645
sg14
g32
sba(iFingerPrint.swirl
Dependency
p646
(dp647
g37
Nsg38
S'libdl.so.2'
p648
sg27
g40
sg41
g42
sg14
g32
sba(iFingerPrint.swirl
Dependency
p649
(dp650
g37
Nsg38
S'libgcc_s.so.1'
p651
sg27
g40
sg41
g42
sg14
g32
sba(iFingerPrint.swirl
Dependency
p652
(dp653
g37
Nsg38
S'libm.so.6'
p654
sg27
g40
sg41
g42
sg14
g32
sbasg21
(lp655
sg23
(lp656
sg25
S'namd/bin/psfgen'
p657
sg27
g40
sbasS'cmdLine'
p658
NsS'creationDate'
p659
cdatetime
datetime
p660
(S'\x07\xdd\x03\x1c\x14\x13"\x0bU\xf8'
p661
tp662
Rp663
sS'name'
p664
S'Swirl'
p665
sS'execedFiles'
p666
(lp667
g8
ag28
ag288
ag316
ag626
asb.